Archive member included to satisfy reference by file (symbol)

../../lib/ArduinoCore-sam/out/sam.a(syscalls_sam3.o)
                              (_sbrk)
../../lib/ArduinoCore-sam/variants/arduino_due_x/libsam_sam3x8e_gcc_rel.a(startup_sam3xa.o)
                              (Reset_Handler)
../../lib/ArduinoCore-sam/variants/arduino_due_x/libsam_sam3x8e_gcc_rel.a(uotghs.o)
                              ../../lib/ArduinoCore-sam/variants/arduino_due_x/libsam_sam3x8e_gcc_rel.a(startup_sam3xa.o) (UOTGHS_Handler)
build/asciz.a(main.o)         c:/users/roxanne/desktop/programming/adkit/tools/arm-none-eabi-gcc/9.3.1-2020q2-windows/bin/../lib/gcc/arm-none-eabi/9.3.1/../../../../arm-none-eabi/lib/thumb/v7-m/nofp/crt0.o (main)
build/asciz.a(print_asciz.o)  build/asciz.a(main.o) (print_asciz)
build/asciz.a(toggle_asciz.o)
                              build/asciz.a(print_asciz.o) (toggle_asciz)
build/asciz.a(application.o)  build/asciz.a(main.o) (application)
build/asciz.a(print_asciz_asm.o)
                              build/asciz.a(application.o) (print_asciz_asm)
build/asciz.a(toggle_asciz_asm.o)
                              build/asciz.a(print_asciz_asm.o) (toggle_asciz_asm)
../../lib/ArduinoCore-sam/out/sam.a(RingBuffer.o)
                              build/asciz.a(main.o) (RingBuffer::RingBuffer())
../../lib/ArduinoCore-sam/out/sam.a(UARTClass.o)
                              build/asciz.a(main.o) (UARTClass::UARTClass(Uart*, IRQn, unsigned long, RingBuffer*, RingBuffer*))
../../lib/ArduinoCore-sam/out/sam.a(watchdog.o)
                              build/asciz.a(main.o) (watchdogSetup())
../../lib/ArduinoCore-sam/out/sam.a(cortex_handlers.o)
                              ../../lib/ArduinoCore-sam/variants/arduino_due_x/libsam_sam3x8e_gcc_rel.a(startup_sam3xa.o) (CAN1_Handler)
../../lib/ArduinoCore-sam/out/sam.a(hooks.o)
                              ../../lib/ArduinoCore-sam/out/sam.a(cortex_handlers.o) (sysTickHook)
../../lib/ArduinoCore-sam/out/sam.a(wiring.o)
                              build/asciz.a(main.o) (delay)
../../lib/ArduinoCore-sam/out/sam.a(variant.o)
                              build/asciz.a(main.o) (init)
../../lib/ArduinoCore-sam/out/sam.a(Print.o)
                              ../../lib/ArduinoCore-sam/out/sam.a(UARTClass.o) (Print::write(unsigned char const*, unsigned int))
../../lib/ArduinoCore-sam/out/sam.a(Reset.o)
                              ../../lib/ArduinoCore-sam/out/sam.a(cortex_handlers.o) (tickReset)
../../lib/ArduinoCore-sam/out/sam.a(USARTClass.o)
                              ../../lib/ArduinoCore-sam/out/sam.a(variant.o) (USARTClass::USARTClass(Usart*, IRQn, unsigned long, RingBuffer*, RingBuffer*))
../../lib/ArduinoCore-sam/out/sam.a(wiring_analog.o)
                              ../../lib/ArduinoCore-sam/out/sam.a(variant.o) (analogOutputInit)
../../lib/ArduinoCore-sam/out/sam.a(wiring_digital.o)
                              ../../lib/ArduinoCore-sam/out/sam.a(wiring_analog.o) (pinMode)
../../lib/ArduinoCore-sam/out/sam.a(abi.o)
                              ../../lib/ArduinoCore-sam/out/sam.a(Print.o) (__cxa_pure_virtual)
../../lib/ArduinoCore-sam/variants/arduino_due_x/libsam_sam3x8e_gcc_rel.a(pio.o)
                              ../../lib/ArduinoCore-sam/out/sam.a(wiring_digital.o) (PIO_PullUp)
../../lib/ArduinoCore-sam/variants/arduino_due_x/libsam_sam3x8e_gcc_rel.a(pmc.o)
                              ../../lib/ArduinoCore-sam/out/sam.a(UARTClass.o) (pmc_enable_periph_clk)
../../lib/ArduinoCore-sam/variants/arduino_due_x/libsam_sam3x8e_gcc_rel.a(pwmc.o)
                              ../../lib/ArduinoCore-sam/out/sam.a(wiring_analog.o) (PWMC_ConfigureChannel)
../../lib/ArduinoCore-sam/variants/arduino_due_x/libsam_sam3x8e_gcc_rel.a(tc.o)
                              ../../lib/ArduinoCore-sam/out/sam.a(wiring_analog.o) (TC_Configure)
../../lib/ArduinoCore-sam/variants/arduino_due_x/libsam_sam3x8e_gcc_rel.a(timetick.o)
                              ../../lib/ArduinoCore-sam/out/sam.a(cortex_handlers.o) (TimeTick_Increment)
../../lib/ArduinoCore-sam/variants/arduino_due_x/libsam_sam3x8e_gcc_rel.a(wdt.o)
                              ../../lib/ArduinoCore-sam/out/sam.a(watchdog.o) (WDT_Enable)
../../lib/ArduinoCore-sam/variants/arduino_due_x/libsam_sam3x8e_gcc_rel.a(system_sam3xa.o)
                              ../../lib/ArduinoCore-sam/out/sam.a(variant.o) (SystemInit)
../../lib/ArduinoCore-sam/variants/arduino_due_x/libsam_sam3x8e_gcc_rel.a(adc.o)
                              ../../lib/ArduinoCore-sam/out/sam.a(variant.o) (adc_init)
../../lib/ArduinoCore-sam/variants/arduino_due_x/libsam_sam3x8e_gcc_rel.a(dacc.o)
                              ../../lib/ArduinoCore-sam/out/sam.a(wiring_analog.o) (dacc_reset)
c:/users/roxanne/desktop/programming/adkit/tools/arm-none-eabi-gcc/9.3.1-2020q2-windows/bin/../lib/gcc/arm-none-eabi/9.3.1/thumb/v7-m/nofp\libgcc.a(_arm_muldf3.o)
                              ../../lib/ArduinoCore-sam/out/sam.a(Print.o) (__aeabi_dmul)
c:/users/roxanne/desktop/programming/adkit/tools/arm-none-eabi-gcc/9.3.1-2020q2-windows/bin/../lib/gcc/arm-none-eabi/9.3.1/thumb/v7-m/nofp\libgcc.a(_arm_addsubdf3.o)
                              ../../lib/ArduinoCore-sam/out/sam.a(Print.o) (__aeabi_dsub)
c:/users/roxanne/desktop/programming/adkit/tools/arm-none-eabi-gcc/9.3.1-2020q2-windows/bin/../lib/gcc/arm-none-eabi/9.3.1/thumb/v7-m/nofp\libgcc.a(_arm_muldivdf3.o)
                              ../../lib/ArduinoCore-sam/out/sam.a(Print.o) (__aeabi_ddiv)
c:/users/roxanne/desktop/programming/adkit/tools/arm-none-eabi-gcc/9.3.1-2020q2-windows/bin/../lib/gcc/arm-none-eabi/9.3.1/thumb/v7-m/nofp\libgcc.a(_arm_cmpdf2.o)
                              ../../lib/ArduinoCore-sam/out/sam.a(Print.o) (__aeabi_dcmplt)
c:/users/roxanne/desktop/programming/adkit/tools/arm-none-eabi-gcc/9.3.1-2020q2-windows/bin/../lib/gcc/arm-none-eabi/9.3.1/thumb/v7-m/nofp\libgcc.a(_arm_unorddf2.o)
                              ../../lib/ArduinoCore-sam/out/sam.a(Print.o) (__aeabi_dcmpun)
c:/users/roxanne/desktop/programming/adkit/tools/arm-none-eabi-gcc/9.3.1-2020q2-windows/bin/../lib/gcc/arm-none-eabi/9.3.1/thumb/v7-m/nofp\libgcc.a(_arm_fixunsdfsi.o)
                              ../../lib/ArduinoCore-sam/out/sam.a(Print.o) (__aeabi_d2uiz)
c:/users/roxanne/desktop/programming/adkit/tools/arm-none-eabi-gcc/9.3.1-2020q2-windows/bin/../lib/gcc/arm-none-eabi/9.3.1/thumb/v7-m/nofp\libgcc.a(unwind-arm.o)
                              build/asciz.a(main.o) (__aeabi_unwind_cpp_pr0)
c:/users/roxanne/desktop/programming/adkit/tools/arm-none-eabi-gcc/9.3.1-2020q2-windows/bin/../lib/gcc/arm-none-eabi/9.3.1/thumb/v7-m/nofp\libgcc.a(libunwind.o)
                              c:/users/roxanne/desktop/programming/adkit/tools/arm-none-eabi-gcc/9.3.1-2020q2-windows/bin/../lib/gcc/arm-none-eabi/9.3.1/thumb/v7-m/nofp\libgcc.a(unwind-arm.o) (restore_core_regs)
c:/users/roxanne/desktop/programming/adkit/tools/arm-none-eabi-gcc/9.3.1-2020q2-windows/bin/../lib/gcc/arm-none-eabi/9.3.1/thumb/v7-m/nofp\libgcc.a(pr-support.o)
                              c:/users/roxanne/desktop/programming/adkit/tools/arm-none-eabi-gcc/9.3.1-2020q2-windows/bin/../lib/gcc/arm-none-eabi/9.3.1/thumb/v7-m/nofp\libgcc.a(unwind-arm.o) (__gnu_unwind_execute)
c:/users/roxanne/desktop/programming/adkit/tools/arm-none-eabi-gcc/9.3.1-2020q2-windows/bin/../lib/gcc/arm-none-eabi/9.3.1/../../../../arm-none-eabi/lib/thumb/v7-m/nofp\libc.a(lib_a-abort.o)
                              c:/users/roxanne/desktop/programming/adkit/tools/arm-none-eabi-gcc/9.3.1-2020q2-windows/bin/../lib/gcc/arm-none-eabi/9.3.1/thumb/v7-m/nofp\libgcc.a(unwind-arm.o) (abort)
c:/users/roxanne/desktop/programming/adkit/tools/arm-none-eabi-gcc/9.3.1-2020q2-windows/bin/../lib/gcc/arm-none-eabi/9.3.1/../../../../arm-none-eabi/lib/thumb/v7-m/nofp\libc.a(lib_a-assert.o)
                              ../../lib/ArduinoCore-sam/variants/arduino_due_x/libsam_sam3x8e_gcc_rel.a(pwmc.o) (__assert_func)
c:/users/roxanne/desktop/programming/adkit/tools/arm-none-eabi-gcc/9.3.1-2020q2-windows/bin/../lib/gcc/arm-none-eabi/9.3.1/../../../../arm-none-eabi/lib/thumb/v7-m/nofp\libc.a(lib_a-exit.o)
                              c:/users/roxanne/desktop/programming/adkit/tools/arm-none-eabi-gcc/9.3.1-2020q2-windows/bin/../lib/gcc/arm-none-eabi/9.3.1/../../../../arm-none-eabi/lib/thumb/v7-m/nofp/crt0.o (exit)
c:/users/roxanne/desktop/programming/adkit/tools/arm-none-eabi-gcc/9.3.1-2020q2-windows/bin/../lib/gcc/arm-none-eabi/9.3.1/../../../../arm-none-eabi/lib/thumb/v7-m/nofp\libc.a(lib_a-fiprintf.o)
                              c:/users/roxanne/desktop/programming/adkit/tools/arm-none-eabi-gcc/9.3.1-2020q2-windows/bin/../lib/gcc/arm-none-eabi/9.3.1/../../../../arm-none-eabi/lib/thumb/v7-m/nofp\libc.a(lib_a-assert.o) (fiprintf)
c:/users/roxanne/desktop/programming/adkit/tools/arm-none-eabi-gcc/9.3.1-2020q2-windows/bin/../lib/gcc/arm-none-eabi/9.3.1/../../../../arm-none-eabi/lib/thumb/v7-m/nofp\libc.a(lib_a-impure.o)
                              c:/users/roxanne/desktop/programming/adkit/tools/arm-none-eabi-gcc/9.3.1-2020q2-windows/bin/../lib/gcc/arm-none-eabi/9.3.1/../../../../arm-none-eabi/lib/thumb/v7-m/nofp\libc.a(lib_a-exit.o) (_global_impure_ptr)
c:/users/roxanne/desktop/programming/adkit/tools/arm-none-eabi-gcc/9.3.1-2020q2-windows/bin/../lib/gcc/arm-none-eabi/9.3.1/../../../../arm-none-eabi/lib/thumb/v7-m/nofp\libc.a(lib_a-init.o)
                              c:/users/roxanne/desktop/programming/adkit/tools/arm-none-eabi-gcc/9.3.1-2020q2-windows/bin/../lib/gcc/arm-none-eabi/9.3.1/../../../../arm-none-eabi/lib/thumb/v7-m/nofp/crt0.o (__libc_init_array)
c:/users/roxanne/desktop/programming/adkit/tools/arm-none-eabi-gcc/9.3.1-2020q2-windows/bin/../lib/gcc/arm-none-eabi/9.3.1/../../../../arm-none-eabi/lib/thumb/v7-m/nofp\libc.a(lib_a-memcpy.o)
                              c:/users/roxanne/desktop/programming/adkit/tools/arm-none-eabi-gcc/9.3.1-2020q2-windows/bin/../lib/gcc/arm-none-eabi/9.3.1/thumb/v7-m/nofp\libgcc.a(unwind-arm.o) (memcpy)
c:/users/roxanne/desktop/programming/adkit/tools/arm-none-eabi-gcc/9.3.1-2020q2-windows/bin/../lib/gcc/arm-none-eabi/9.3.1/../../../../arm-none-eabi/lib/thumb/v7-m/nofp\libc.a(lib_a-memset.o)
                              c:/users/roxanne/desktop/programming/adkit/tools/arm-none-eabi-gcc/9.3.1-2020q2-windows/bin/../lib/gcc/arm-none-eabi/9.3.1/../../../../arm-none-eabi/lib/thumb/v7-m/nofp/crt0.o (memset)
c:/users/roxanne/desktop/programming/adkit/tools/arm-none-eabi-gcc/9.3.1-2020q2-windows/bin/../lib/gcc/arm-none-eabi/9.3.1/../../../../arm-none-eabi/lib/thumb/v7-m/nofp\libc.a(lib_a-printf.o)
                              build/asciz.a(main.o) (printf)
c:/users/roxanne/desktop/programming/adkit/tools/arm-none-eabi-gcc/9.3.1-2020q2-windows/bin/../lib/gcc/arm-none-eabi/9.3.1/../../../../arm-none-eabi/lib/thumb/v7-m/nofp\libc.a(lib_a-putchar.o)
                              build/asciz.a(print_asciz.o) (putchar)
c:/users/roxanne/desktop/programming/adkit/tools/arm-none-eabi-gcc/9.3.1-2020q2-windows/bin/../lib/gcc/arm-none-eabi/9.3.1/../../../../arm-none-eabi/lib/thumb/v7-m/nofp\libc.a(lib_a-signal.o)
                              c:/users/roxanne/desktop/programming/adkit/tools/arm-none-eabi-gcc/9.3.1-2020q2-windows/bin/../lib/gcc/arm-none-eabi/9.3.1/../../../../arm-none-eabi/lib/thumb/v7-m/nofp\libc.a(lib_a-abort.o) (raise)
c:/users/roxanne/desktop/programming/adkit/tools/arm-none-eabi-gcc/9.3.1-2020q2-windows/bin/../lib/gcc/arm-none-eabi/9.3.1/../../../../arm-none-eabi/lib/thumb/v7-m/nofp\libc.a(lib_a-signalr.o)
                              c:/users/roxanne/desktop/programming/adkit/tools/arm-none-eabi-gcc/9.3.1-2020q2-windows/bin/../lib/gcc/arm-none-eabi/9.3.1/../../../../arm-none-eabi/lib/thumb/v7-m/nofp\libc.a(lib_a-signal.o) (_kill_r)
c:/users/roxanne/desktop/programming/adkit/tools/arm-none-eabi-gcc/9.3.1-2020q2-windows/bin/../lib/gcc/arm-none-eabi/9.3.1/../../../../arm-none-eabi/lib/thumb/v7-m/nofp\libc.a(lib_a-strlen-stub.o)
                              ../../lib/ArduinoCore-sam/out/sam.a(Print.o) (strlen)
c:/users/roxanne/desktop/programming/adkit/tools/arm-none-eabi-gcc/9.3.1-2020q2-windows/bin/../lib/gcc/arm-none-eabi/9.3.1/../../../../arm-none-eabi/lib/thumb/v7-m/nofp\libc.a(lib_a-syskill.o)
                              (kill)
c:/users/roxanne/desktop/programming/adkit/tools/arm-none-eabi-gcc/9.3.1-2020q2-windows/bin/../lib/gcc/arm-none-eabi/9.3.1/../../../../arm-none-eabi/lib/thumb/v7-m/nofp\libc.a(lib_a-vfiprintf.o)
                              c:/users/roxanne/desktop/programming/adkit/tools/arm-none-eabi-gcc/9.3.1-2020q2-windows/bin/../lib/gcc/arm-none-eabi/9.3.1/../../../../arm-none-eabi/lib/thumb/v7-m/nofp\libc.a(lib_a-fiprintf.o) (_vfiprintf_r)
c:/users/roxanne/desktop/programming/adkit/tools/arm-none-eabi-gcc/9.3.1-2020q2-windows/bin/../lib/gcc/arm-none-eabi/9.3.1/../../../../arm-none-eabi/lib/thumb/v7-m/nofp\libc.a(lib_a-vfprintf.o)
                              c:/users/roxanne/desktop/programming/adkit/tools/arm-none-eabi-gcc/9.3.1-2020q2-windows/bin/../lib/gcc/arm-none-eabi/9.3.1/../../../../arm-none-eabi/lib/thumb/v7-m/nofp\libc.a(lib_a-printf.o) (_vfprintf_r)
c:/users/roxanne/desktop/programming/adkit/tools/arm-none-eabi-gcc/9.3.1-2020q2-windows/bin/../lib/gcc/arm-none-eabi/9.3.1/../../../../arm-none-eabi/lib/thumb/v7-m/nofp\libc.a(lib_a-wsetup.o)
                              c:/users/roxanne/desktop/programming/adkit/tools/arm-none-eabi-gcc/9.3.1-2020q2-windows/bin/../lib/gcc/arm-none-eabi/9.3.1/../../../../arm-none-eabi/lib/thumb/v7-m/nofp\libc.a(lib_a-vfiprintf.o) (__swsetup_r)
c:/users/roxanne/desktop/programming/adkit/tools/arm-none-eabi-gcc/9.3.1-2020q2-windows/bin/../lib/gcc/arm-none-eabi/9.3.1/../../../../arm-none-eabi/lib/thumb/v7-m/nofp\libc.a(lib_a-__call_atexit.o)
                              c:/users/roxanne/desktop/programming/adkit/tools/arm-none-eabi-gcc/9.3.1-2020q2-windows/bin/../lib/gcc/arm-none-eabi/9.3.1/../../../../arm-none-eabi/lib/thumb/v7-m/nofp\libc.a(lib_a-exit.o) (__call_exitprocs)
c:/users/roxanne/desktop/programming/adkit/tools/arm-none-eabi-gcc/9.3.1-2020q2-windows/bin/../lib/gcc/arm-none-eabi/9.3.1/../../../../arm-none-eabi/lib/thumb/v7-m/nofp\libc.a(lib_a-atexit.o)
                              c:/users/roxanne/desktop/programming/adkit/tools/arm-none-eabi-gcc/9.3.1-2020q2-windows/bin/../lib/gcc/arm-none-eabi/9.3.1/../../../../arm-none-eabi/lib/thumb/v7-m/nofp\libc.a(lib_a-__call_atexit.o) (atexit)
c:/users/roxanne/desktop/programming/adkit/tools/arm-none-eabi-gcc/9.3.1-2020q2-windows/bin/../lib/gcc/arm-none-eabi/9.3.1/../../../../arm-none-eabi/lib/thumb/v7-m/nofp\libc.a(lib_a-dtoa.o)
                              c:/users/roxanne/desktop/programming/adkit/tools/arm-none-eabi-gcc/9.3.1-2020q2-windows/bin/../lib/gcc/arm-none-eabi/9.3.1/../../../../arm-none-eabi/lib/thumb/v7-m/nofp\libc.a(lib_a-vfprintf.o) (_dtoa_r)
c:/users/roxanne/desktop/programming/adkit/tools/arm-none-eabi-gcc/9.3.1-2020q2-windows/bin/../lib/gcc/arm-none-eabi/9.3.1/../../../../arm-none-eabi/lib/thumb/v7-m/nofp\libc.a(lib_a-fflush.o)
                              c:/users/roxanne/desktop/programming/adkit/tools/arm-none-eabi-gcc/9.3.1-2020q2-windows/bin/../lib/gcc/arm-none-eabi/9.3.1/../../../../arm-none-eabi/lib/thumb/v7-m/nofp\libc.a(lib_a-vfiprintf.o) (_fflush_r)
c:/users/roxanne/desktop/programming/adkit/tools/arm-none-eabi-gcc/9.3.1-2020q2-windows/bin/../lib/gcc/arm-none-eabi/9.3.1/../../../../arm-none-eabi/lib/thumb/v7-m/nofp\libc.a(lib_a-findfp.o)
                              c:/users/roxanne/desktop/programming/adkit/tools/arm-none-eabi-gcc/9.3.1-2020q2-windows/bin/../lib/gcc/arm-none-eabi/9.3.1/../../../../arm-none-eabi/lib/thumb/v7-m/nofp\libc.a(lib_a-vfiprintf.o) (__sinit)
c:/users/roxanne/desktop/programming/adkit/tools/arm-none-eabi-gcc/9.3.1-2020q2-windows/bin/../lib/gcc/arm-none-eabi/9.3.1/../../../../arm-none-eabi/lib/thumb/v7-m/nofp\libc.a(lib_a-fini.o)
                              c:/users/roxanne/desktop/programming/adkit/tools/arm-none-eabi-gcc/9.3.1-2020q2-windows/bin/../lib/gcc/arm-none-eabi/9.3.1/../../../../arm-none-eabi/lib/thumb/v7-m/nofp\libc.a(lib_a-__call_atexit.o) (__libc_fini_array)
c:/users/roxanne/desktop/programming/adkit/tools/arm-none-eabi-gcc/9.3.1-2020q2-windows/bin/../lib/gcc/arm-none-eabi/9.3.1/../../../../arm-none-eabi/lib/thumb/v7-m/nofp\libc.a(lib_a-fputwc.o)
                              c:/users/roxanne/desktop/programming/adkit/tools/arm-none-eabi-gcc/9.3.1-2020q2-windows/bin/../lib/gcc/arm-none-eabi/9.3.1/../../../../arm-none-eabi/lib/thumb/v7-m/nofp\libc.a(lib_a-vfiprintf.o) (_fputwc_r)
c:/users/roxanne/desktop/programming/adkit/tools/arm-none-eabi-gcc/9.3.1-2020q2-windows/bin/../lib/gcc/arm-none-eabi/9.3.1/../../../../arm-none-eabi/lib/thumb/v7-m/nofp\libc.a(lib_a-freer.o)
                              c:/users/roxanne/desktop/programming/adkit/tools/arm-none-eabi-gcc/9.3.1-2020q2-windows/bin/../lib/gcc/arm-none-eabi/9.3.1/../../../../arm-none-eabi/lib/thumb/v7-m/nofp\libc.a(lib_a-vfprintf.o) (_free_r)
c:/users/roxanne/desktop/programming/adkit/tools/arm-none-eabi-gcc/9.3.1-2020q2-windows/bin/../lib/gcc/arm-none-eabi/9.3.1/../../../../arm-none-eabi/lib/thumb/v7-m/nofp\libc.a(lib_a-fvwrite.o)
                              c:/users/roxanne/desktop/programming/adkit/tools/arm-none-eabi-gcc/9.3.1-2020q2-windows/bin/../lib/gcc/arm-none-eabi/9.3.1/../../../../arm-none-eabi/lib/thumb/v7-m/nofp\libc.a(lib_a-vfiprintf.o) (__sfvwrite_r)
c:/users/roxanne/desktop/programming/adkit/tools/arm-none-eabi-gcc/9.3.1-2020q2-windows/bin/../lib/gcc/arm-none-eabi/9.3.1/../../../../arm-none-eabi/lib/thumb/v7-m/nofp\libc.a(lib_a-fwalk.o)
                              c:/users/roxanne/desktop/programming/adkit/tools/arm-none-eabi-gcc/9.3.1-2020q2-windows/bin/../lib/gcc/arm-none-eabi/9.3.1/../../../../arm-none-eabi/lib/thumb/v7-m/nofp\libc.a(lib_a-findfp.o) (_fwalk)
c:/users/roxanne/desktop/programming/adkit/tools/arm-none-eabi-gcc/9.3.1-2020q2-windows/bin/../lib/gcc/arm-none-eabi/9.3.1/../../../../arm-none-eabi/lib/thumb/v7-m/nofp\libc.a(lib_a-locale.o)
                              c:/users/roxanne/desktop/programming/adkit/tools/arm-none-eabi-gcc/9.3.1-2020q2-windows/bin/../lib/gcc/arm-none-eabi/9.3.1/../../../../arm-none-eabi/lib/thumb/v7-m/nofp\libc.a(lib_a-fputwc.o) (__locale_mb_cur_max)
c:/users/roxanne/desktop/programming/adkit/tools/arm-none-eabi-gcc/9.3.1-2020q2-windows/bin/../lib/gcc/arm-none-eabi/9.3.1/../../../../arm-none-eabi/lib/thumb/v7-m/nofp\libc.a(lib_a-localeconv.o)
                              c:/users/roxanne/desktop/programming/adkit/tools/arm-none-eabi-gcc/9.3.1-2020q2-windows/bin/../lib/gcc/arm-none-eabi/9.3.1/../../../../arm-none-eabi/lib/thumb/v7-m/nofp\libc.a(lib_a-vfiprintf.o) (_localeconv_r)
c:/users/roxanne/desktop/programming/adkit/tools/arm-none-eabi-gcc/9.3.1-2020q2-windows/bin/../lib/gcc/arm-none-eabi/9.3.1/../../../../arm-none-eabi/lib/thumb/v7-m/nofp\libc.a(lib_a-lock.o)
                              c:/users/roxanne/desktop/programming/adkit/tools/arm-none-eabi-gcc/9.3.1-2020q2-windows/bin/../lib/gcc/arm-none-eabi/9.3.1/../../../../arm-none-eabi/lib/thumb/v7-m/nofp\libc.a(lib_a-vfiprintf.o) (__retarget_lock_init_recursive)
c:/users/roxanne/desktop/programming/adkit/tools/arm-none-eabi-gcc/9.3.1-2020q2-windows/bin/../lib/gcc/arm-none-eabi/9.3.1/../../../../arm-none-eabi/lib/thumb/v7-m/nofp\libc.a(lib_a-makebuf.o)
                              c:/users/roxanne/desktop/programming/adkit/tools/arm-none-eabi-gcc/9.3.1-2020q2-windows/bin/../lib/gcc/arm-none-eabi/9.3.1/../../../../arm-none-eabi/lib/thumb/v7-m/nofp\libc.a(lib_a-wsetup.o) (__smakebuf_r)
c:/users/roxanne/desktop/programming/adkit/tools/arm-none-eabi-gcc/9.3.1-2020q2-windows/bin/../lib/gcc/arm-none-eabi/9.3.1/../../../../arm-none-eabi/lib/thumb/v7-m/nofp\libc.a(lib_a-mallocr.o)
                              c:/users/roxanne/desktop/programming/adkit/tools/arm-none-eabi-gcc/9.3.1-2020q2-windows/bin/../lib/gcc/arm-none-eabi/9.3.1/../../../../arm-none-eabi/lib/thumb/v7-m/nofp\libc.a(lib_a-signal.o) (_malloc_r)
c:/users/roxanne/desktop/programming/adkit/tools/arm-none-eabi-gcc/9.3.1-2020q2-windows/bin/../lib/gcc/arm-none-eabi/9.3.1/../../../../arm-none-eabi/lib/thumb/v7-m/nofp\libc.a(lib_a-mbtowc_r.o)
                              c:/users/roxanne/desktop/programming/adkit/tools/arm-none-eabi-gcc/9.3.1-2020q2-windows/bin/../lib/gcc/arm-none-eabi/9.3.1/../../../../arm-none-eabi/lib/thumb/v7-m/nofp\libc.a(lib_a-locale.o) (__ascii_mbtowc)
c:/users/roxanne/desktop/programming/adkit/tools/arm-none-eabi-gcc/9.3.1-2020q2-windows/bin/../lib/gcc/arm-none-eabi/9.3.1/../../../../arm-none-eabi/lib/thumb/v7-m/nofp\libc.a(lib_a-memchr-stub.o)
                              c:/users/roxanne/desktop/programming/adkit/tools/arm-none-eabi-gcc/9.3.1-2020q2-windows/bin/../lib/gcc/arm-none-eabi/9.3.1/../../../../arm-none-eabi/lib/thumb/v7-m/nofp\libc.a(lib_a-vfiprintf.o) (memchr)
c:/users/roxanne/desktop/programming/adkit/tools/arm-none-eabi-gcc/9.3.1-2020q2-windows/bin/../lib/gcc/arm-none-eabi/9.3.1/../../../../arm-none-eabi/lib/thumb/v7-m/nofp\libc.a(lib_a-memmove.o)
                              c:/users/roxanne/desktop/programming/adkit/tools/arm-none-eabi-gcc/9.3.1-2020q2-windows/bin/../lib/gcc/arm-none-eabi/9.3.1/../../../../arm-none-eabi/lib/thumb/v7-m/nofp\libc.a(lib_a-fvwrite.o) (memmove)
c:/users/roxanne/desktop/programming/adkit/tools/arm-none-eabi-gcc/9.3.1-2020q2-windows/bin/../lib/gcc/arm-none-eabi/9.3.1/../../../../arm-none-eabi/lib/thumb/v7-m/nofp\libc.a(lib_a-mlock.o)
                              c:/users/roxanne/desktop/programming/adkit/tools/arm-none-eabi-gcc/9.3.1-2020q2-windows/bin/../lib/gcc/arm-none-eabi/9.3.1/../../../../arm-none-eabi/lib/thumb/v7-m/nofp\libc.a(lib_a-freer.o) (__malloc_lock)
c:/users/roxanne/desktop/programming/adkit/tools/arm-none-eabi-gcc/9.3.1-2020q2-windows/bin/../lib/gcc/arm-none-eabi/9.3.1/../../../../arm-none-eabi/lib/thumb/v7-m/nofp\libc.a(lib_a-mprec.o)
                              c:/users/roxanne/desktop/programming/adkit/tools/arm-none-eabi-gcc/9.3.1-2020q2-windows/bin/../lib/gcc/arm-none-eabi/9.3.1/../../../../arm-none-eabi/lib/thumb/v7-m/nofp\libc.a(lib_a-dtoa.o) (_Balloc)
c:/users/roxanne/desktop/programming/adkit/tools/arm-none-eabi-gcc/9.3.1-2020q2-windows/bin/../lib/gcc/arm-none-eabi/9.3.1/../../../../arm-none-eabi/lib/thumb/v7-m/nofp\libc.a(lib_a-putc.o)
                              c:/users/roxanne/desktop/programming/adkit/tools/arm-none-eabi-gcc/9.3.1-2020q2-windows/bin/../lib/gcc/arm-none-eabi/9.3.1/../../../../arm-none-eabi/lib/thumb/v7-m/nofp\libc.a(lib_a-putchar.o) (_putc_r)
c:/users/roxanne/desktop/programming/adkit/tools/arm-none-eabi-gcc/9.3.1-2020q2-windows/bin/../lib/gcc/arm-none-eabi/9.3.1/../../../../arm-none-eabi/lib/thumb/v7-m/nofp\libc.a(lib_a-reallocr.o)
                              c:/users/roxanne/desktop/programming/adkit/tools/arm-none-eabi-gcc/9.3.1-2020q2-windows/bin/../lib/gcc/arm-none-eabi/9.3.1/../../../../arm-none-eabi/lib/thumb/v7-m/nofp\libc.a(lib_a-fvwrite.o) (_realloc_r)
c:/users/roxanne/desktop/programming/adkit/tools/arm-none-eabi-gcc/9.3.1-2020q2-windows/bin/../lib/gcc/arm-none-eabi/9.3.1/../../../../arm-none-eabi/lib/thumb/v7-m/nofp\libc.a(lib_a-reent.o)
                              c:/users/roxanne/desktop/programming/adkit/tools/arm-none-eabi-gcc/9.3.1-2020q2-windows/bin/../lib/gcc/arm-none-eabi/9.3.1/../../../../arm-none-eabi/lib/thumb/v7-m/nofp\libc.a(lib_a-signalr.o) (errno)
c:/users/roxanne/desktop/programming/adkit/tools/arm-none-eabi-gcc/9.3.1-2020q2-windows/bin/../lib/gcc/arm-none-eabi/9.3.1/../../../../arm-none-eabi/lib/thumb/v7-m/nofp\libc.a(lib_a-s_frexp.o)
                              c:/users/roxanne/desktop/programming/adkit/tools/arm-none-eabi-gcc/9.3.1-2020q2-windows/bin/../lib/gcc/arm-none-eabi/9.3.1/../../../../arm-none-eabi/lib/thumb/v7-m/nofp\libc.a(lib_a-vfprintf.o) (frexp)
c:/users/roxanne/desktop/programming/adkit/tools/arm-none-eabi-gcc/9.3.1-2020q2-windows/bin/../lib/gcc/arm-none-eabi/9.3.1/../../../../arm-none-eabi/lib/thumb/v7-m/nofp\libc.a(lib_a-sbrkr.o)
                              c:/users/roxanne/desktop/programming/adkit/tools/arm-none-eabi-gcc/9.3.1-2020q2-windows/bin/../lib/gcc/arm-none-eabi/9.3.1/../../../../arm-none-eabi/lib/thumb/v7-m/nofp\libc.a(lib_a-freer.o) (_sbrk_r)
c:/users/roxanne/desktop/programming/adkit/tools/arm-none-eabi-gcc/9.3.1-2020q2-windows/bin/../lib/gcc/arm-none-eabi/9.3.1/../../../../arm-none-eabi/lib/thumb/v7-m/nofp\libc.a(lib_a-stdio.o)
                              c:/users/roxanne/desktop/programming/adkit/tools/arm-none-eabi-gcc/9.3.1-2020q2-windows/bin/../lib/gcc/arm-none-eabi/9.3.1/../../../../arm-none-eabi/lib/thumb/v7-m/nofp\libc.a(lib_a-findfp.o) (__sread)
c:/users/roxanne/desktop/programming/adkit/tools/arm-none-eabi-gcc/9.3.1-2020q2-windows/bin/../lib/gcc/arm-none-eabi/9.3.1/../../../../arm-none-eabi/lib/thumb/v7-m/nofp\libc.a(lib_a-strcmp.o)
                              c:/users/roxanne/desktop/programming/adkit/tools/arm-none-eabi-gcc/9.3.1-2020q2-windows/bin/../lib/gcc/arm-none-eabi/9.3.1/../../../../arm-none-eabi/lib/thumb/v7-m/nofp\libc.a(lib_a-locale.o) (strcmp)
c:/users/roxanne/desktop/programming/adkit/tools/arm-none-eabi-gcc/9.3.1-2020q2-windows/bin/../lib/gcc/arm-none-eabi/9.3.1/../../../../arm-none-eabi/lib/thumb/v7-m/nofp\libc.a(lib_a-strncpy.o)
                              c:/users/roxanne/desktop/programming/adkit/tools/arm-none-eabi-gcc/9.3.1-2020q2-windows/bin/../lib/gcc/arm-none-eabi/9.3.1/../../../../arm-none-eabi/lib/thumb/v7-m/nofp\libc.a(lib_a-vfiprintf.o) (strncpy)
c:/users/roxanne/desktop/programming/adkit/tools/arm-none-eabi-gcc/9.3.1-2020q2-windows/bin/../lib/gcc/arm-none-eabi/9.3.1/../../../../arm-none-eabi/lib/thumb/v7-m/nofp\libc.a(lib_a-wbuf.o)
                              c:/users/roxanne/desktop/programming/adkit/tools/arm-none-eabi-gcc/9.3.1-2020q2-windows/bin/../lib/gcc/arm-none-eabi/9.3.1/../../../../arm-none-eabi/lib/thumb/v7-m/nofp\libc.a(lib_a-fputwc.o) (__swbuf_r)
c:/users/roxanne/desktop/programming/adkit/tools/arm-none-eabi-gcc/9.3.1-2020q2-windows/bin/../lib/gcc/arm-none-eabi/9.3.1/../../../../arm-none-eabi/lib/thumb/v7-m/nofp\libc.a(lib_a-wcrtomb.o)
                              c:/users/roxanne/desktop/programming/adkit/tools/arm-none-eabi-gcc/9.3.1-2020q2-windows/bin/../lib/gcc/arm-none-eabi/9.3.1/../../../../arm-none-eabi/lib/thumb/v7-m/nofp\libc.a(lib_a-fputwc.o) (_wcrtomb_r)
c:/users/roxanne/desktop/programming/adkit/tools/arm-none-eabi-gcc/9.3.1-2020q2-windows/bin/../lib/gcc/arm-none-eabi/9.3.1/../../../../arm-none-eabi/lib/thumb/v7-m/nofp\libc.a(lib_a-wctomb_r.o)
                              c:/users/roxanne/desktop/programming/adkit/tools/arm-none-eabi-gcc/9.3.1-2020q2-windows/bin/../lib/gcc/arm-none-eabi/9.3.1/../../../../arm-none-eabi/lib/thumb/v7-m/nofp\libc.a(lib_a-locale.o) (__ascii_wctomb)
c:/users/roxanne/desktop/programming/adkit/tools/arm-none-eabi-gcc/9.3.1-2020q2-windows/bin/../lib/gcc/arm-none-eabi/9.3.1/../../../../arm-none-eabi/lib/thumb/v7-m/nofp\libc.a(lib_a-writer.o)
                              c:/users/roxanne/desktop/programming/adkit/tools/arm-none-eabi-gcc/9.3.1-2020q2-windows/bin/../lib/gcc/arm-none-eabi/9.3.1/../../../../arm-none-eabi/lib/thumb/v7-m/nofp\libc.a(lib_a-stdio.o) (_write_r)
c:/users/roxanne/desktop/programming/adkit/tools/arm-none-eabi-gcc/9.3.1-2020q2-windows/bin/../lib/gcc/arm-none-eabi/9.3.1/../../../../arm-none-eabi/lib/thumb/v7-m/nofp\libc.a(lib_a-__atexit.o)
                              c:/users/roxanne/desktop/programming/adkit/tools/arm-none-eabi-gcc/9.3.1-2020q2-windows/bin/../lib/gcc/arm-none-eabi/9.3.1/../../../../arm-none-eabi/lib/thumb/v7-m/nofp\libc.a(lib_a-atexit.o) (__register_exitproc)
c:/users/roxanne/desktop/programming/adkit/tools/arm-none-eabi-gcc/9.3.1-2020q2-windows/bin/../lib/gcc/arm-none-eabi/9.3.1/../../../../arm-none-eabi/lib/thumb/v7-m/nofp\libc.a(lib_a-callocr.o)
                              c:/users/roxanne/desktop/programming/adkit/tools/arm-none-eabi-gcc/9.3.1-2020q2-windows/bin/../lib/gcc/arm-none-eabi/9.3.1/../../../../arm-none-eabi/lib/thumb/v7-m/nofp\libc.a(lib_a-mprec.o) (_calloc_r)
c:/users/roxanne/desktop/programming/adkit/tools/arm-none-eabi-gcc/9.3.1-2020q2-windows/bin/../lib/gcc/arm-none-eabi/9.3.1/../../../../arm-none-eabi/lib/thumb/v7-m/nofp\libc.a(lib_a-closer.o)
                              c:/users/roxanne/desktop/programming/adkit/tools/arm-none-eabi-gcc/9.3.1-2020q2-windows/bin/../lib/gcc/arm-none-eabi/9.3.1/../../../../arm-none-eabi/lib/thumb/v7-m/nofp\libc.a(lib_a-stdio.o) (_close_r)
c:/users/roxanne/desktop/programming/adkit/tools/arm-none-eabi-gcc/9.3.1-2020q2-windows/bin/../lib/gcc/arm-none-eabi/9.3.1/../../../../arm-none-eabi/lib/thumb/v7-m/nofp\libc.a(lib_a-ctype_.o)
                              c:/users/roxanne/desktop/programming/adkit/tools/arm-none-eabi-gcc/9.3.1-2020q2-windows/bin/../lib/gcc/arm-none-eabi/9.3.1/../../../../arm-none-eabi/lib/thumb/v7-m/nofp\libc.a(lib_a-locale.o) (_ctype_)
c:/users/roxanne/desktop/programming/adkit/tools/arm-none-eabi-gcc/9.3.1-2020q2-windows/bin/../lib/gcc/arm-none-eabi/9.3.1/../../../../arm-none-eabi/lib/thumb/v7-m/nofp\libc.a(lib_a-fclose.o)
                              c:/users/roxanne/desktop/programming/adkit/tools/arm-none-eabi-gcc/9.3.1-2020q2-windows/bin/../lib/gcc/arm-none-eabi/9.3.1/../../../../arm-none-eabi/lib/thumb/v7-m/nofp\libc.a(lib_a-findfp.o) (_fclose_r)
c:/users/roxanne/desktop/programming/adkit/tools/arm-none-eabi-gcc/9.3.1-2020q2-windows/bin/../lib/gcc/arm-none-eabi/9.3.1/../../../../arm-none-eabi/lib/thumb/v7-m/nofp\libc.a(lib_a-fstatr.o)
                              c:/users/roxanne/desktop/programming/adkit/tools/arm-none-eabi-gcc/9.3.1-2020q2-windows/bin/../lib/gcc/arm-none-eabi/9.3.1/../../../../arm-none-eabi/lib/thumb/v7-m/nofp\libc.a(lib_a-makebuf.o) (_fstat_r)
c:/users/roxanne/desktop/programming/adkit/tools/arm-none-eabi-gcc/9.3.1-2020q2-windows/bin/../lib/gcc/arm-none-eabi/9.3.1/../../../../arm-none-eabi/lib/thumb/v7-m/nofp\libc.a(lib_a-isattyr.o)
                              c:/users/roxanne/desktop/programming/adkit/tools/arm-none-eabi-gcc/9.3.1-2020q2-windows/bin/../lib/gcc/arm-none-eabi/9.3.1/../../../../arm-none-eabi/lib/thumb/v7-m/nofp\libc.a(lib_a-makebuf.o) (_isatty_r)
c:/users/roxanne/desktop/programming/adkit/tools/arm-none-eabi-gcc/9.3.1-2020q2-windows/bin/../lib/gcc/arm-none-eabi/9.3.1/../../../../arm-none-eabi/lib/thumb/v7-m/nofp\libc.a(lib_a-lseekr.o)
                              c:/users/roxanne/desktop/programming/adkit/tools/arm-none-eabi-gcc/9.3.1-2020q2-windows/bin/../lib/gcc/arm-none-eabi/9.3.1/../../../../arm-none-eabi/lib/thumb/v7-m/nofp\libc.a(lib_a-stdio.o) (_lseek_r)
c:/users/roxanne/desktop/programming/adkit/tools/arm-none-eabi-gcc/9.3.1-2020q2-windows/bin/../lib/gcc/arm-none-eabi/9.3.1/../../../../arm-none-eabi/lib/thumb/v7-m/nofp\libc.a(lib_a-readr.o)
                              c:/users/roxanne/desktop/programming/adkit/tools/arm-none-eabi-gcc/9.3.1-2020q2-windows/bin/../lib/gcc/arm-none-eabi/9.3.1/../../../../arm-none-eabi/lib/thumb/v7-m/nofp\libc.a(lib_a-stdio.o) (_read_r)
c:/users/roxanne/desktop/programming/adkit/tools/arm-none-eabi-gcc/9.3.1-2020q2-windows/bin/../lib/gcc/arm-none-eabi/9.3.1/thumb/v7-m/nofp\libgcc.a(_arm_fixdfsi.o)
                              c:/users/roxanne/desktop/programming/adkit/tools/arm-none-eabi-gcc/9.3.1-2020q2-windows/bin/../lib/gcc/arm-none-eabi/9.3.1/../../../../arm-none-eabi/lib/thumb/v7-m/nofp\libc.a(lib_a-vfprintf.o) (__aeabi_d2iz)
c:/users/roxanne/desktop/programming/adkit/tools/arm-none-eabi-gcc/9.3.1-2020q2-windows/bin/../lib/gcc/arm-none-eabi/9.3.1/thumb/v7-m/nofp\libgcc.a(_aeabi_uldivmod.o)
                              c:/users/roxanne/desktop/programming/adkit/tools/arm-none-eabi-gcc/9.3.1-2020q2-windows/bin/../lib/gcc/arm-none-eabi/9.3.1/../../../../arm-none-eabi/lib/thumb/v7-m/nofp\libc.a(lib_a-vfiprintf.o) (__aeabi_uldivmod)
c:/users/roxanne/desktop/programming/adkit/tools/arm-none-eabi-gcc/9.3.1-2020q2-windows/bin/../lib/gcc/arm-none-eabi/9.3.1/thumb/v7-m/nofp\libgcc.a(_udivmoddi4.o)
                              c:/users/roxanne/desktop/programming/adkit/tools/arm-none-eabi-gcc/9.3.1-2020q2-windows/bin/../lib/gcc/arm-none-eabi/9.3.1/thumb/v7-m/nofp\libgcc.a(_aeabi_uldivmod.o) (__udivmoddi4)
c:/users/roxanne/desktop/programming/adkit/tools/arm-none-eabi-gcc/9.3.1-2020q2-windows/bin/../lib/gcc/arm-none-eabi/9.3.1/thumb/v7-m/nofp\libgcc.a(_dvmd_tls.o)
                              c:/users/roxanne/desktop/programming/adkit/tools/arm-none-eabi-gcc/9.3.1-2020q2-windows/bin/../lib/gcc/arm-none-eabi/9.3.1/thumb/v7-m/nofp\libgcc.a(_aeabi_uldivmod.o) (__aeabi_ldiv0)

Allocating common symbols
Common symbol       size              file

__lock___atexit_recursive_mutex
                    0x1               c:/users/roxanne/desktop/programming/adkit/tools/arm-none-eabi-gcc/9.3.1-2020q2-windows/bin/../lib/gcc/arm-none-eabi/9.3.1/../../../../arm-none-eabi/lib/thumb/v7-m/nofp\libc.a(lib_a-lock.o)
__lock___arc4random_mutex
                    0x1               c:/users/roxanne/desktop/programming/adkit/tools/arm-none-eabi-gcc/9.3.1-2020q2-windows/bin/../lib/gcc/arm-none-eabi/9.3.1/../../../../arm-none-eabi/lib/thumb/v7-m/nofp\libc.a(lib_a-lock.o)
errno               0x4               c:/users/roxanne/desktop/programming/adkit/tools/arm-none-eabi-gcc/9.3.1-2020q2-windows/bin/../lib/gcc/arm-none-eabi/9.3.1/../../../../arm-none-eabi/lib/thumb/v7-m/nofp\libc.a(lib_a-reent.o)
__lock___env_recursive_mutex
                    0x1               c:/users/roxanne/desktop/programming/adkit/tools/arm-none-eabi-gcc/9.3.1-2020q2-windows/bin/../lib/gcc/arm-none-eabi/9.3.1/../../../../arm-none-eabi/lib/thumb/v7-m/nofp\libc.a(lib_a-lock.o)
__lock___sinit_recursive_mutex
                    0x1               c:/users/roxanne/desktop/programming/adkit/tools/arm-none-eabi-gcc/9.3.1-2020q2-windows/bin/../lib/gcc/arm-none-eabi/9.3.1/../../../../arm-none-eabi/lib/thumb/v7-m/nofp\libc.a(lib_a-lock.o)
__lock___malloc_recursive_mutex
                    0x1               c:/users/roxanne/desktop/programming/adkit/tools/arm-none-eabi-gcc/9.3.1-2020q2-windows/bin/../lib/gcc/arm-none-eabi/9.3.1/../../../../arm-none-eabi/lib/thumb/v7-m/nofp\libc.a(lib_a-lock.o)
__lock___at_quick_exit_mutex
                    0x1               c:/users/roxanne/desktop/programming/adkit/tools/arm-none-eabi-gcc/9.3.1-2020q2-windows/bin/../lib/gcc/arm-none-eabi/9.3.1/../../../../arm-none-eabi/lib/thumb/v7-m/nofp\libc.a(lib_a-lock.o)
__lock___dd_hash_mutex
                    0x1               c:/users/roxanne/desktop/programming/adkit/tools/arm-none-eabi-gcc/9.3.1-2020q2-windows/bin/../lib/gcc/arm-none-eabi/9.3.1/../../../../arm-none-eabi/lib/thumb/v7-m/nofp\libc.a(lib_a-lock.o)
__lock___tz_mutex   0x1               c:/users/roxanne/desktop/programming/adkit/tools/arm-none-eabi-gcc/9.3.1-2020q2-windows/bin/../lib/gcc/arm-none-eabi/9.3.1/../../../../arm-none-eabi/lib/thumb/v7-m/nofp\libc.a(lib_a-lock.o)
__lock___sfp_recursive_mutex
                    0x1               c:/users/roxanne/desktop/programming/adkit/tools/arm-none-eabi-gcc/9.3.1-2020q2-windows/bin/../lib/gcc/arm-none-eabi/9.3.1/../../../../arm-none-eabi/lib/thumb/v7-m/nofp\libc.a(lib_a-lock.o)

Discarded input sections

 .text          0x00000000        0x0 c:/users/roxanne/desktop/programming/adkit/tools/arm-none-eabi-gcc/9.3.1-2020q2-windows/bin/../lib/gcc/arm-none-eabi/9.3.1/thumb/v7-m/nofp/crti.o
 .data          0x00000000        0x0 c:/users/roxanne/desktop/programming/adkit/tools/arm-none-eabi-gcc/9.3.1-2020q2-windows/bin/../lib/gcc/arm-none-eabi/9.3.1/thumb/v7-m/nofp/crti.o
 .bss           0x00000000        0x0 c:/users/roxanne/desktop/programming/adkit/tools/arm-none-eabi-gcc/9.3.1-2020q2-windows/bin/../lib/gcc/arm-none-eabi/9.3.1/thumb/v7-m/nofp/crti.o
 .data          0x00000000        0x4 c:/users/roxanne/desktop/programming/adkit/tools/arm-none-eabi-gcc/9.3.1-2020q2-windows/bin/../lib/gcc/arm-none-eabi/9.3.1/thumb/v7-m/nofp/crtbegin.o
 .text          0x00000000       0x7c c:/users/roxanne/desktop/programming/adkit/tools/arm-none-eabi-gcc/9.3.1-2020q2-windows/bin/../lib/gcc/arm-none-eabi/9.3.1/../../../../arm-none-eabi/lib/thumb/v7-m/nofp/crt0.o
 .data          0x00000000        0x0 c:/users/roxanne/desktop/programming/adkit/tools/arm-none-eabi-gcc/9.3.1-2020q2-windows/bin/../lib/gcc/arm-none-eabi/9.3.1/../../../../arm-none-eabi/lib/thumb/v7-m/nofp/crt0.o
 .bss           0x00000000        0x0 c:/users/roxanne/desktop/programming/adkit/tools/arm-none-eabi-gcc/9.3.1-2020q2-windows/bin/../lib/gcc/arm-none-eabi/9.3.1/../../../../arm-none-eabi/lib/thumb/v7-m/nofp/crt0.o
 .ARM.extab     0x00000000        0x0 c:/users/roxanne/desktop/programming/adkit/tools/arm-none-eabi-gcc/9.3.1-2020q2-windows/bin/../lib/gcc/arm-none-eabi/9.3.1/../../../../arm-none-eabi/lib/thumb/v7-m/nofp/crt0.o
 .ARM.exidx     0x00000000       0x10 c:/users/roxanne/desktop/programming/adkit/tools/arm-none-eabi-gcc/9.3.1-2020q2-windows/bin/../lib/gcc/arm-none-eabi/9.3.1/../../../../arm-none-eabi/lib/thumb/v7-m/nofp/crt0.o
 .ARM.attributes
                0x00000000       0x1b c:/users/roxanne/desktop/programming/adkit/tools/arm-none-eabi-gcc/9.3.1-2020q2-windows/bin/../lib/gcc/arm-none-eabi/9.3.1/../../../../arm-none-eabi/lib/thumb/v7-m/nofp/crt0.o
 .text          0x00000000        0x0 ../../lib/ArduinoCore-sam/out/sam.a(syscalls_sam3.o)
 .data          0x00000000        0x0 ../../lib/ArduinoCore-sam/out/sam.a(syscalls_sam3.o)
 .bss           0x00000000        0x0 ../../lib/ArduinoCore-sam/out/sam.a(syscalls_sam3.o)
 .text          0x00000000        0x0 ../../lib/ArduinoCore-sam/variants/arduino_due_x/libsam_sam3x8e_gcc_rel.a(startup_sam3xa.o)
 .data          0x00000000        0x0 ../../lib/ArduinoCore-sam/variants/arduino_due_x/libsam_sam3x8e_gcc_rel.a(startup_sam3xa.o)
 .bss           0x00000000        0x0 ../../lib/ArduinoCore-sam/variants/arduino_due_x/libsam_sam3x8e_gcc_rel.a(startup_sam3xa.o)
 .text          0x00000000        0x0 ../../lib/ArduinoCore-sam/variants/arduino_due_x/libsam_sam3x8e_gcc_rel.a(uotghs.o)
 .data          0x00000000        0x0 ../../lib/ArduinoCore-sam/variants/arduino_due_x/libsam_sam3x8e_gcc_rel.a(uotghs.o)
 .bss           0x00000000        0x0 ../../lib/ArduinoCore-sam/variants/arduino_due_x/libsam_sam3x8e_gcc_rel.a(uotghs.o)
 .text          0x00000000        0x0 build/asciz.a(main.o)
 .data          0x00000000        0x0 build/asciz.a(main.o)
 .bss           0x00000000        0x0 build/asciz.a(main.o)
 .ARM.extab.text.startup.main
                0x00000000        0x0 build/asciz.a(main.o)
 .text          0x00000000        0x0 build/asciz.a(print_asciz.o)
 .data          0x00000000        0x0 build/asciz.a(print_asciz.o)
 .bss           0x00000000        0x0 build/asciz.a(print_asciz.o)
 .ARM.extab.text.print_asciz
                0x00000000        0x0 build/asciz.a(print_asciz.o)
 .text          0x00000000        0x0 build/asciz.a(toggle_asciz.o)
 .data          0x00000000        0x0 build/asciz.a(toggle_asciz.o)
 .bss           0x00000000        0x0 build/asciz.a(toggle_asciz.o)
 .ARM.extab.text.toggle_asciz
                0x00000000        0x0 build/asciz.a(toggle_asciz.o)
 .data          0x00000000        0x0 build/asciz.a(application.o)
 .bss           0x00000000        0x0 build/asciz.a(application.o)
 .data          0x00000000        0x0 build/asciz.a(print_asciz_asm.o)
 .bss           0x00000000        0x0 build/asciz.a(print_asciz_asm.o)
 .data          0x00000000        0x0 build/asciz.a(toggle_asciz_asm.o)
 .bss           0x00000000        0x0 build/asciz.a(toggle_asciz_asm.o)
 .text          0x00000000        0x0 ../../lib/ArduinoCore-sam/out/sam.a(RingBuffer.o)
 .data          0x00000000        0x0 ../../lib/ArduinoCore-sam/out/sam.a(RingBuffer.o)
 .bss           0x00000000        0x0 ../../lib/ArduinoCore-sam/out/sam.a(RingBuffer.o)
 .group         0x00000000        0x8 ../../lib/ArduinoCore-sam/out/sam.a(UARTClass.o)
 .text          0x00000000        0x0 ../../lib/ArduinoCore-sam/out/sam.a(UARTClass.o)
 .data          0x00000000        0x0 ../../lib/ArduinoCore-sam/out/sam.a(UARTClass.o)
 .bss           0x00000000        0x0 ../../lib/ArduinoCore-sam/out/sam.a(UARTClass.o)
 .text._ZN9UARTClass5beginEmNS_9UARTModesE
                0x00000000        0x8 ../../lib/ArduinoCore-sam/out/sam.a(UARTClass.o)
 .text._ZN9UARTClass20setInterruptPriorityEm
                0x00000000       0x2c ../../lib/ArduinoCore-sam/out/sam.a(UARTClass.o)
 .text._ZN9UARTClass20getInterruptPriorityEv
                0x00000000       0x28 ../../lib/ArduinoCore-sam/out/sam.a(UARTClass.o)
 .text._ZN9UARTClass17availableForWriteEv
                0x00000000       0x1c ../../lib/ArduinoCore-sam/out/sam.a(UARTClass.o)
 .text          0x00000000        0x0 ../../lib/ArduinoCore-sam/out/sam.a(watchdog.o)
 .data          0x00000000        0x0 ../../lib/ArduinoCore-sam/out/sam.a(watchdog.o)
 .bss           0x00000000        0x0 ../../lib/ArduinoCore-sam/out/sam.a(watchdog.o)
 .text._Z14watchdogEnablem
                0x00000000       0x34 ../../lib/ArduinoCore-sam/out/sam.a(watchdog.o)
 .text._Z13watchdogResetv
                0x00000000        0xc ../../lib/ArduinoCore-sam/out/sam.a(watchdog.o)
 .text          0x00000000        0x0 ../../lib/ArduinoCore-sam/out/sam.a(cortex_handlers.o)
 .data          0x00000000        0x0 ../../lib/ArduinoCore-sam/out/sam.a(cortex_handlers.o)
 .bss           0x00000000        0x0 ../../lib/ArduinoCore-sam/out/sam.a(cortex_handlers.o)
 .text          0x00000000        0x0 ../../lib/ArduinoCore-sam/out/sam.a(hooks.o)
 .data          0x00000000        0x0 ../../lib/ArduinoCore-sam/out/sam.a(hooks.o)
 .bss           0x00000000        0x0 ../../lib/ArduinoCore-sam/out/sam.a(hooks.o)
 .text          0x00000000        0x0 ../../lib/ArduinoCore-sam/out/sam.a(wiring.o)
 .data          0x00000000        0x0 ../../lib/ArduinoCore-sam/out/sam.a(wiring.o)
 .bss           0x00000000        0x0 ../../lib/ArduinoCore-sam/out/sam.a(wiring.o)
 .text.millis   0x00000000        0x4 ../../lib/ArduinoCore-sam/out/sam.a(wiring.o)
 .text.micros   0x00000000       0x7c ../../lib/ArduinoCore-sam/out/sam.a(wiring.o)
 .text          0x00000000        0x0 ../../lib/ArduinoCore-sam/out/sam.a(variant.o)
 .data          0x00000000        0x0 ../../lib/ArduinoCore-sam/out/sam.a(variant.o)
 .bss           0x00000000        0x0 ../../lib/ArduinoCore-sam/out/sam.a(variant.o)
 .text._Z11serialEventv
                0x00000000        0x2 ../../lib/ArduinoCore-sam/out/sam.a(variant.o)
 .text._Z12serialEvent1v
                0x00000000        0x2 ../../lib/ArduinoCore-sam/out/sam.a(variant.o)
 .text._Z12serialEvent2v
                0x00000000        0x2 ../../lib/ArduinoCore-sam/out/sam.a(variant.o)
 .text._Z12serialEvent3v
                0x00000000        0x2 ../../lib/ArduinoCore-sam/out/sam.a(variant.o)
 .text._Z14serialEventRunv
                0x00000000       0x44 ../../lib/ArduinoCore-sam/out/sam.a(variant.o)
 .group         0x00000000        0xc ../../lib/ArduinoCore-sam/out/sam.a(Print.o)
 .text          0x00000000        0x0 ../../lib/ArduinoCore-sam/out/sam.a(Print.o)
 .data          0x00000000        0x0 ../../lib/ArduinoCore-sam/out/sam.a(Print.o)
 .bss           0x00000000        0x0 ../../lib/ArduinoCore-sam/out/sam.a(Print.o)
 .text._ZN5Print5writeEPKc
                0x00000000       0x20 ../../lib/ArduinoCore-sam/out/sam.a(Print.o)
 .text._ZN5Print5printEPK19__FlashStringHelper
                0x00000000        0x8 ../../lib/ArduinoCore-sam/out/sam.a(Print.o)
 .text._ZN5Print5printERK6String
                0x00000000        0xa ../../lib/ArduinoCore-sam/out/sam.a(Print.o)
 .text._ZN5Print5printEPKc
                0x00000000        0x8 ../../lib/ArduinoCore-sam/out/sam.a(Print.o)
 .text._ZN5Print5printEc
                0x00000000        0x6 ../../lib/ArduinoCore-sam/out/sam.a(Print.o)
 .text._ZN5Print5printERK9Printable
                0x00000000        0xc ../../lib/ArduinoCore-sam/out/sam.a(Print.o)
 .rodata._ZN5Print7printlnEv.str1.1
                0x00000000        0x3 ../../lib/ArduinoCore-sam/out/sam.a(Print.o)
 .text._ZN5Print7printlnEv
                0x00000000       0x10 ../../lib/ArduinoCore-sam/out/sam.a(Print.o)
 .text._ZN5Print7printlnEPK19__FlashStringHelper
                0x00000000       0x14 ../../lib/ArduinoCore-sam/out/sam.a(Print.o)
 .text._ZN5Print7printlnERK6String
                0x00000000       0x14 ../../lib/ArduinoCore-sam/out/sam.a(Print.o)
 .text._ZN5Print7printlnEPKc
                0x00000000       0x14 ../../lib/ArduinoCore-sam/out/sam.a(Print.o)
 .text._ZN5Print7printlnEc
                0x00000000       0x14 ../../lib/ArduinoCore-sam/out/sam.a(Print.o)
 .text._ZN5Print7printlnERK9Printable
                0x00000000       0x14 ../../lib/ArduinoCore-sam/out/sam.a(Print.o)
 .text._ZN5Print11printNumberEmh
                0x00000000       0x3c ../../lib/ArduinoCore-sam/out/sam.a(Print.o)
 .text._ZN5Print5printEli
                0x00000000       0x42 ../../lib/ArduinoCore-sam/out/sam.a(Print.o)
 .text._ZN5Print5printEii
                0x00000000        0x4 ../../lib/ArduinoCore-sam/out/sam.a(Print.o)
 .text._ZN5Print7printlnEii
                0x00000000       0x14 ../../lib/ArduinoCore-sam/out/sam.a(Print.o)
 .text._ZN5Print7printlnEli
                0x00000000       0x14 ../../lib/ArduinoCore-sam/out/sam.a(Print.o)
 .text._ZN5Print5printEmi
                0x00000000       0x16 ../../lib/ArduinoCore-sam/out/sam.a(Print.o)
 .text._ZN5Print5printEhi
                0x00000000        0x4 ../../lib/ArduinoCore-sam/out/sam.a(Print.o)
 .text._ZN5Print7printlnEhi
                0x00000000       0x14 ../../lib/ArduinoCore-sam/out/sam.a(Print.o)
 .text._ZN5Print5printEji
                0x00000000        0x4 ../../lib/ArduinoCore-sam/out/sam.a(Print.o)
 .text._ZN5Print7printlnEji
                0x00000000       0x14 ../../lib/ArduinoCore-sam/out/sam.a(Print.o)
 .text._ZN5Print7printlnEmi
                0x00000000       0x14 ../../lib/ArduinoCore-sam/out/sam.a(Print.o)
 .rodata._ZN5Print10printFloatEdh.str1.1
                0x00000000        0xc ../../lib/ArduinoCore-sam/out/sam.a(Print.o)
 .text._ZN5Print10printFloatEdh
                0x00000000      0x164 ../../lib/ArduinoCore-sam/out/sam.a(Print.o)
 .text._ZN5Print5printEdi
                0x00000000        0xa ../../lib/ArduinoCore-sam/out/sam.a(Print.o)
 .text._ZN5Print7printlnEdi
                0x00000000       0x1c ../../lib/ArduinoCore-sam/out/sam.a(Print.o)
 .rodata._ZTV5Print
                0x00000000       0x10 ../../lib/ArduinoCore-sam/out/sam.a(Print.o)
 .text          0x00000000        0x0 ../../lib/ArduinoCore-sam/out/sam.a(Reset.o)
 .data          0x00000000        0x0 ../../lib/ArduinoCore-sam/out/sam.a(Reset.o)
 .bss           0x00000000        0x0 ../../lib/ArduinoCore-sam/out/sam.a(Reset.o)
 .text.initiateReset
                0x00000000        0xc ../../lib/ArduinoCore-sam/out/sam.a(Reset.o)
 .text.cancelReset
                0x00000000       0x10 ../../lib/ArduinoCore-sam/out/sam.a(Reset.o)
 .group         0x00000000        0x8 ../../lib/ArduinoCore-sam/out/sam.a(USARTClass.o)
 .text          0x00000000        0x0 ../../lib/ArduinoCore-sam/out/sam.a(USARTClass.o)
 .data          0x00000000        0x0 ../../lib/ArduinoCore-sam/out/sam.a(USARTClass.o)
 .bss           0x00000000        0x0 ../../lib/ArduinoCore-sam/out/sam.a(USARTClass.o)
 .text._ZN9UARTClasscvbEv
                0x00000000        0x4 ../../lib/ArduinoCore-sam/out/sam.a(USARTClass.o)
 .text._ZN10USARTClass5beginEmN9UARTClass9UARTModesE
                0x00000000        0x4 ../../lib/ArduinoCore-sam/out/sam.a(USARTClass.o)
 .text._ZN10USARTClass5beginEmNS_10USARTModesE
                0x00000000        0x4 ../../lib/ArduinoCore-sam/out/sam.a(USARTClass.o)
 .text          0x00000000        0x0 ../../lib/ArduinoCore-sam/out/sam.a(wiring_analog.o)
 .data          0x00000000        0x0 ../../lib/ArduinoCore-sam/out/sam.a(wiring_analog.o)
 .bss           0x00000000        0x0 ../../lib/ArduinoCore-sam/out/sam.a(wiring_analog.o)
 .text.mapResolution
                0x00000000       0x12 ../../lib/ArduinoCore-sam/out/sam.a(wiring_analog.o)
 .text.analogReadResolution
                0x00000000        0xc ../../lib/ArduinoCore-sam/out/sam.a(wiring_analog.o)
 .text.analogWriteResolution
                0x00000000        0xc ../../lib/ArduinoCore-sam/out/sam.a(wiring_analog.o)
 .text.analogReference
                0x00000000        0xc ../../lib/ArduinoCore-sam/out/sam.a(wiring_analog.o)
 .text.analogRead
                0x00000000       0x98 ../../lib/ArduinoCore-sam/out/sam.a(wiring_analog.o)
 .text.analogWrite
                0x00000000      0x2c4 ../../lib/ArduinoCore-sam/out/sam.a(wiring_analog.o)
 .bss.PWMEnabled
                0x00000000        0x1 ../../lib/ArduinoCore-sam/out/sam.a(wiring_analog.o)
 .bss.TCChanEnabled
                0x00000000        0x9 ../../lib/ArduinoCore-sam/out/sam.a(wiring_analog.o)
 .bss.analog_reference
                0x00000000        0x1 ../../lib/ArduinoCore-sam/out/sam.a(wiring_analog.o)
 .data._readResolution
                0x00000000        0x4 ../../lib/ArduinoCore-sam/out/sam.a(wiring_analog.o)
 .data._writeResolution
                0x00000000        0x4 ../../lib/ArduinoCore-sam/out/sam.a(wiring_analog.o)
 .data.latestSelectedChannel.9699
                0x00000000        0x4 ../../lib/ArduinoCore-sam/out/sam.a(wiring_analog.o)
 .rodata.channelToAB.9746
                0x00000000       0x48 ../../lib/ArduinoCore-sam/out/sam.a(wiring_analog.o)
 .rodata.channelToChNo.9745
                0x00000000       0x48 ../../lib/ArduinoCore-sam/out/sam.a(wiring_analog.o)
 .rodata.channelToId.9748
                0x00000000       0x48 ../../lib/ArduinoCore-sam/out/sam.a(wiring_analog.o)
 .rodata.channelToTC.9747
                0x00000000       0x48 ../../lib/ArduinoCore-sam/out/sam.a(wiring_analog.o)
 .text          0x00000000        0x0 ../../lib/ArduinoCore-sam/out/sam.a(wiring_digital.o)
 .data          0x00000000        0x0 ../../lib/ArduinoCore-sam/out/sam.a(wiring_digital.o)
 .bss           0x00000000        0x0 ../../lib/ArduinoCore-sam/out/sam.a(wiring_digital.o)
 .text.digitalRead
                0x00000000       0x48 ../../lib/ArduinoCore-sam/out/sam.a(wiring_digital.o)
 .text          0x00000000        0x0 ../../lib/ArduinoCore-sam/out/sam.a(abi.o)
 .data          0x00000000        0x0 ../../lib/ArduinoCore-sam/out/sam.a(abi.o)
 .bss           0x00000000        0x0 ../../lib/ArduinoCore-sam/out/sam.a(abi.o)
 .text.__cxa_pure_virtual
                0x00000000        0x2 ../../lib/ArduinoCore-sam/out/sam.a(abi.o)
 .text.__cxa_deleted_virtual
                0x00000000        0x2 ../../lib/ArduinoCore-sam/out/sam.a(abi.o)
 .debug_info    0x00000000     0x1033 ../../lib/ArduinoCore-sam/out/sam.a(abi.o)
 .debug_abbrev  0x00000000      0x2af ../../lib/ArduinoCore-sam/out/sam.a(abi.o)
 .debug_aranges
                0x00000000       0x28 ../../lib/ArduinoCore-sam/out/sam.a(abi.o)
 .debug_ranges  0x00000000       0x18 ../../lib/ArduinoCore-sam/out/sam.a(abi.o)
 .debug_line    0x00000000      0x3e6 ../../lib/ArduinoCore-sam/out/sam.a(abi.o)
 .debug_str     0x00000000      0x76b ../../lib/ArduinoCore-sam/out/sam.a(abi.o)
 .comment       0x00000000       0x4d ../../lib/ArduinoCore-sam/out/sam.a(abi.o)
 .debug_frame   0x00000000       0x30 ../../lib/ArduinoCore-sam/out/sam.a(abi.o)
 .ARM.attributes
                0x00000000       0x2d ../../lib/ArduinoCore-sam/out/sam.a(abi.o)
 .text          0x00000000        0x0 ../../lib/ArduinoCore-sam/variants/arduino_due_x/libsam_sam3x8e_gcc_rel.a(pio.o)
 .data          0x00000000        0x0 ../../lib/ArduinoCore-sam/variants/arduino_due_x/libsam_sam3x8e_gcc_rel.a(pio.o)
 .bss           0x00000000        0x0 ../../lib/ArduinoCore-sam/variants/arduino_due_x/libsam_sam3x8e_gcc_rel.a(pio.o)
 .text.PIO_DisableInterrupt
                0x00000000        0x4 ../../lib/ArduinoCore-sam/variants/arduino_due_x/libsam_sam3x8e_gcc_rel.a(pio.o)
 .text.PIO_SetDebounceFilter
                0x00000000       0x1a ../../lib/ArduinoCore-sam/variants/arduino_due_x/libsam_sam3x8e_gcc_rel.a(pio.o)
 .text.PIO_Set  0x00000000        0x4 ../../lib/ArduinoCore-sam/variants/arduino_due_x/libsam_sam3x8e_gcc_rel.a(pio.o)
 .text.PIO_Get  0x00000000       0x14 ../../lib/ArduinoCore-sam/variants/arduino_due_x/libsam_sam3x8e_gcc_rel.a(pio.o)
 .text.PIO_Clear
                0x00000000        0x4 ../../lib/ArduinoCore-sam/variants/arduino_due_x/libsam_sam3x8e_gcc_rel.a(pio.o)
 .text          0x00000000        0x0 ../../lib/ArduinoCore-sam/variants/arduino_due_x/libsam_sam3x8e_gcc_rel.a(pmc.o)
 .data          0x00000000        0x0 ../../lib/ArduinoCore-sam/variants/arduino_due_x/libsam_sam3x8e_gcc_rel.a(pmc.o)
 .bss           0x00000000        0x0 ../../lib/ArduinoCore-sam/variants/arduino_due_x/libsam_sam3x8e_gcc_rel.a(pmc.o)
 .text.pmc_mck_set_prescaler
                0x00000000       0x18 ../../lib/ArduinoCore-sam/variants/arduino_due_x/libsam_sam3x8e_gcc_rel.a(pmc.o)
 .text.pmc_mck_set_source
                0x00000000       0x18 ../../lib/ArduinoCore-sam/variants/arduino_due_x/libsam_sam3x8e_gcc_rel.a(pmc.o)
 .text.pmc_switch_mck_to_sclk
                0x00000000       0x44 ../../lib/ArduinoCore-sam/variants/arduino_due_x/libsam_sam3x8e_gcc_rel.a(pmc.o)
 .text.pmc_switch_mck_to_mainck
                0x00000000       0x48 ../../lib/ArduinoCore-sam/variants/arduino_due_x/libsam_sam3x8e_gcc_rel.a(pmc.o)
 .text.pmc_switch_mck_to_pllack
                0x00000000       0x44 ../../lib/ArduinoCore-sam/variants/arduino_due_x/libsam_sam3x8e_gcc_rel.a(pmc.o)
 .text.pmc_switch_mck_to_upllck
                0x00000000       0x40 ../../lib/ArduinoCore-sam/variants/arduino_due_x/libsam_sam3x8e_gcc_rel.a(pmc.o)
 .text.pmc_switch_sclk_to_32kxtal
                0x00000000       0x24 ../../lib/ArduinoCore-sam/variants/arduino_due_x/libsam_sam3x8e_gcc_rel.a(pmc.o)
 .text.pmc_osc_is_ready_32kxtal
                0x00000000       0x1c ../../lib/ArduinoCore-sam/variants/arduino_due_x/libsam_sam3x8e_gcc_rel.a(pmc.o)
 .text.pmc_switch_mainck_to_fastrc
                0x00000000       0x6c ../../lib/ArduinoCore-sam/variants/arduino_due_x/libsam_sam3x8e_gcc_rel.a(pmc.o)
 .text.pmc_osc_enable_fastrc
                0x00000000       0x18 ../../lib/ArduinoCore-sam/variants/arduino_due_x/libsam_sam3x8e_gcc_rel.a(pmc.o)
 .text.pmc_osc_disable_fastrc
                0x00000000       0x18 ../../lib/ArduinoCore-sam/variants/arduino_due_x/libsam_sam3x8e_gcc_rel.a(pmc.o)
 .text.pmc_switch_mainck_to_xtal
                0x00000000       0x48 ../../lib/ArduinoCore-sam/variants/arduino_due_x/libsam_sam3x8e_gcc_rel.a(pmc.o)
 .text.pmc_osc_disable_xtal
                0x00000000       0x20 ../../lib/ArduinoCore-sam/variants/arduino_due_x/libsam_sam3x8e_gcc_rel.a(pmc.o)
 .text.pmc_osc_is_ready_mainck
                0x00000000       0x10 ../../lib/ArduinoCore-sam/variants/arduino_due_x/libsam_sam3x8e_gcc_rel.a(pmc.o)
 .text.pmc_enable_pllack
                0x00000000       0x34 ../../lib/ArduinoCore-sam/variants/arduino_due_x/libsam_sam3x8e_gcc_rel.a(pmc.o)
 .text.pmc_disable_pllack
                0x00000000       0x10 ../../lib/ArduinoCore-sam/variants/arduino_due_x/libsam_sam3x8e_gcc_rel.a(pmc.o)
 .text.pmc_is_locked_pllack
                0x00000000       0x10 ../../lib/ArduinoCore-sam/variants/arduino_due_x/libsam_sam3x8e_gcc_rel.a(pmc.o)
 .text.pmc_enable_upll_clock
                0x00000000       0x14 ../../lib/ArduinoCore-sam/variants/arduino_due_x/libsam_sam3x8e_gcc_rel.a(pmc.o)
 .text.pmc_disable_upll_clock
                0x00000000       0x10 ../../lib/ArduinoCore-sam/variants/arduino_due_x/libsam_sam3x8e_gcc_rel.a(pmc.o)
 .text.pmc_is_locked_upll
                0x00000000       0x10 ../../lib/ArduinoCore-sam/variants/arduino_due_x/libsam_sam3x8e_gcc_rel.a(pmc.o)
 .text.pmc_enable_all_periph_clk
                0x00000000       0x2c ../../lib/ArduinoCore-sam/variants/arduino_due_x/libsam_sam3x8e_gcc_rel.a(pmc.o)
 .text.pmc_disable_all_periph_clk
                0x00000000       0x28 ../../lib/ArduinoCore-sam/variants/arduino_due_x/libsam_sam3x8e_gcc_rel.a(pmc.o)
 .text.pmc_is_periph_clk_enabled
                0x00000000       0x34 ../../lib/ArduinoCore-sam/variants/arduino_due_x/libsam_sam3x8e_gcc_rel.a(pmc.o)
 .text.pmc_pck_set_prescaler
                0x00000000       0x2c ../../lib/ArduinoCore-sam/variants/arduino_due_x/libsam_sam3x8e_gcc_rel.a(pmc.o)
 .text.pmc_pck_set_source
                0x00000000       0x2c ../../lib/ArduinoCore-sam/variants/arduino_due_x/libsam_sam3x8e_gcc_rel.a(pmc.o)
 .text.pmc_switch_pck_to_sclk
                0x00000000       0x2c ../../lib/ArduinoCore-sam/variants/arduino_due_x/libsam_sam3x8e_gcc_rel.a(pmc.o)
 .text.pmc_switch_pck_to_mainck
                0x00000000       0x30 ../../lib/ArduinoCore-sam/variants/arduino_due_x/libsam_sam3x8e_gcc_rel.a(pmc.o)
 .text.pmc_switch_pck_to_pllack
                0x00000000       0x30 ../../lib/ArduinoCore-sam/variants/arduino_due_x/libsam_sam3x8e_gcc_rel.a(pmc.o)
 .text.pmc_switch_pck_to_upllck
                0x00000000       0x30 ../../lib/ArduinoCore-sam/variants/arduino_due_x/libsam_sam3x8e_gcc_rel.a(pmc.o)
 .text.pmc_enable_pck
                0x00000000       0x14 ../../lib/ArduinoCore-sam/variants/arduino_due_x/libsam_sam3x8e_gcc_rel.a(pmc.o)
 .text.pmc_disable_pck
                0x00000000       0x14 ../../lib/ArduinoCore-sam/variants/arduino_due_x/libsam_sam3x8e_gcc_rel.a(pmc.o)
 .text.pmc_enable_all_pck
                0x00000000       0x10 ../../lib/ArduinoCore-sam/variants/arduino_due_x/libsam_sam3x8e_gcc_rel.a(pmc.o)
 .text.pmc_disable_all_pck
                0x00000000       0x10 ../../lib/ArduinoCore-sam/variants/arduino_due_x/libsam_sam3x8e_gcc_rel.a(pmc.o)
 .text.pmc_is_pck_enabled
                0x00000000       0x1c ../../lib/ArduinoCore-sam/variants/arduino_due_x/libsam_sam3x8e_gcc_rel.a(pmc.o)
 .text.pmc_switch_udpck_to_pllack
                0x00000000       0x10 ../../lib/ArduinoCore-sam/variants/arduino_due_x/libsam_sam3x8e_gcc_rel.a(pmc.o)
 .text.pmc_switch_udpck_to_upllck
                0x00000000       0x14 ../../lib/ArduinoCore-sam/variants/arduino_due_x/libsam_sam3x8e_gcc_rel.a(pmc.o)
 .text.pmc_enable_udpck
                0x00000000        0xc ../../lib/ArduinoCore-sam/variants/arduino_due_x/libsam_sam3x8e_gcc_rel.a(pmc.o)
 .text.pmc_disable_udpck
                0x00000000        0xc ../../lib/ArduinoCore-sam/variants/arduino_due_x/libsam_sam3x8e_gcc_rel.a(pmc.o)
 .text.pmc_enable_interrupt
                0x00000000        0xc ../../lib/ArduinoCore-sam/variants/arduino_due_x/libsam_sam3x8e_gcc_rel.a(pmc.o)
 .text.pmc_disable_interrupt
                0x00000000        0xc ../../lib/ArduinoCore-sam/variants/arduino_due_x/libsam_sam3x8e_gcc_rel.a(pmc.o)
 .text.pmc_get_interrupt_mask
                0x00000000        0xc ../../lib/ArduinoCore-sam/variants/arduino_due_x/libsam_sam3x8e_gcc_rel.a(pmc.o)
 .text.pmc_get_status
                0x00000000        0xc ../../lib/ArduinoCore-sam/variants/arduino_due_x/libsam_sam3x8e_gcc_rel.a(pmc.o)
 .text.pmc_set_fast_startup_input
                0x00000000       0x14 ../../lib/ArduinoCore-sam/variants/arduino_due_x/libsam_sam3x8e_gcc_rel.a(pmc.o)
 .text.pmc_clr_fast_startup_input
                0x00000000       0x14 ../../lib/ArduinoCore-sam/variants/arduino_due_x/libsam_sam3x8e_gcc_rel.a(pmc.o)
 .text.pmc_enable_sleepmode
                0x00000000       0x28 ../../lib/ArduinoCore-sam/variants/arduino_due_x/libsam_sam3x8e_gcc_rel.a(pmc.o)
 .text.pmc_enable_waitmode
                0x00000000       0x34 ../../lib/ArduinoCore-sam/variants/arduino_due_x/libsam_sam3x8e_gcc_rel.a(pmc.o)
 .text.pmc_enable_backupmode
                0x00000000       0x14 ../../lib/ArduinoCore-sam/variants/arduino_due_x/libsam_sam3x8e_gcc_rel.a(pmc.o)
 .text.pmc_set_writeprotect
                0x00000000       0x1c ../../lib/ArduinoCore-sam/variants/arduino_due_x/libsam_sam3x8e_gcc_rel.a(pmc.o)
 .text.pmc_get_writeprotect_status
                0x00000000       0x10 ../../lib/ArduinoCore-sam/variants/arduino_due_x/libsam_sam3x8e_gcc_rel.a(pmc.o)
 .text          0x00000000        0x0 ../../lib/ArduinoCore-sam/variants/arduino_due_x/libsam_sam3x8e_gcc_rel.a(pwmc.o)
 .data          0x00000000        0x0 ../../lib/ArduinoCore-sam/variants/arduino_due_x/libsam_sam3x8e_gcc_rel.a(pwmc.o)
 .bss           0x00000000        0x0 ../../lib/ArduinoCore-sam/variants/arduino_due_x/libsam_sam3x8e_gcc_rel.a(pwmc.o)
 .text.FindClockConfiguration
                0x00000000       0x7c ../../lib/ArduinoCore-sam/variants/arduino_due_x/libsam_sam3x8e_gcc_rel.a(pwmc.o)
 .text.PWMC_ConfigureChannel
                0x00000000       0x60 ../../lib/ArduinoCore-sam/variants/arduino_due_x/libsam_sam3x8e_gcc_rel.a(pwmc.o)
 .text.PWMC_ConfigureChannelExt
                0x00000000       0xcc ../../lib/ArduinoCore-sam/variants/arduino_due_x/libsam_sam3x8e_gcc_rel.a(pwmc.o)
 .text.PWMC_ConfigureClocks
                0x00000000       0x54 ../../lib/ArduinoCore-sam/variants/arduino_due_x/libsam_sam3x8e_gcc_rel.a(pwmc.o)
 .text.PWMC_SetPeriod
                0x00000000       0x1a ../../lib/ArduinoCore-sam/variants/arduino_due_x/libsam_sam3x8e_gcc_rel.a(pwmc.o)
 .text.PWMC_SetDutyCycle
                0x00000000       0x44 ../../lib/ArduinoCore-sam/variants/arduino_due_x/libsam_sam3x8e_gcc_rel.a(pwmc.o)
 .text.PWMC_SetDeadTime
                0x00000000       0x60 ../../lib/ArduinoCore-sam/variants/arduino_due_x/libsam_sam3x8e_gcc_rel.a(pwmc.o)
 .text.PWMC_ConfigureSyncChannel
                0x00000000        0xe ../../lib/ArduinoCore-sam/variants/arduino_due_x/libsam_sam3x8e_gcc_rel.a(pwmc.o)
 .text.PWMC_SetSyncChannelUpdatePeriod
                0x00000000        0xc ../../lib/ArduinoCore-sam/variants/arduino_due_x/libsam_sam3x8e_gcc_rel.a(pwmc.o)
 .text.PWMC_SetSyncChannelUpdateUnlock
                0x00000000        0x6 ../../lib/ArduinoCore-sam/variants/arduino_due_x/libsam_sam3x8e_gcc_rel.a(pwmc.o)
 .text.PWMC_EnableChannel
                0x00000000        0xa ../../lib/ArduinoCore-sam/variants/arduino_due_x/libsam_sam3x8e_gcc_rel.a(pwmc.o)
 .text.PWMC_DisableChannel
                0x00000000        0xa ../../lib/ArduinoCore-sam/variants/arduino_due_x/libsam_sam3x8e_gcc_rel.a(pwmc.o)
 .text.PWMC_EnableChannelIt
                0x00000000        0xa ../../lib/ArduinoCore-sam/variants/arduino_due_x/libsam_sam3x8e_gcc_rel.a(pwmc.o)
 .text.PWMC_DisableChannelIt
                0x00000000        0xa ../../lib/ArduinoCore-sam/variants/arduino_due_x/libsam_sam3x8e_gcc_rel.a(pwmc.o)
 .text.PWMC_EnableIt
                0x00000000        0x6 ../../lib/ArduinoCore-sam/variants/arduino_due_x/libsam_sam3x8e_gcc_rel.a(pwmc.o)
 .text.PWMC_DisableIt
                0x00000000        0x6 ../../lib/ArduinoCore-sam/variants/arduino_due_x/libsam_sam3x8e_gcc_rel.a(pwmc.o)
 .text.PWMC_WriteBuffer
                0x00000000       0x2e ../../lib/ArduinoCore-sam/variants/arduino_due_x/libsam_sam3x8e_gcc_rel.a(pwmc.o)
 .text.PWMC_SetOverrideValue
                0x00000000        0x4 ../../lib/ArduinoCore-sam/variants/arduino_due_x/libsam_sam3x8e_gcc_rel.a(pwmc.o)
 .text.PWMC_EnableOverrideOutput
                0x00000000        0xa ../../lib/ArduinoCore-sam/variants/arduino_due_x/libsam_sam3x8e_gcc_rel.a(pwmc.o)
 .text.PWMC_DisableOverrideOutput
                0x00000000        0xa ../../lib/ArduinoCore-sam/variants/arduino_due_x/libsam_sam3x8e_gcc_rel.a(pwmc.o)
 .text.PWMC_SetFaultMode
                0x00000000        0x4 ../../lib/ArduinoCore-sam/variants/arduino_due_x/libsam_sam3x8e_gcc_rel.a(pwmc.o)
 .text.PWMC_FaultClear
                0x00000000        0x4 ../../lib/ArduinoCore-sam/variants/arduino_due_x/libsam_sam3x8e_gcc_rel.a(pwmc.o)
 .text.PWMC_SetFaultProtectionValue
                0x00000000        0x4 ../../lib/ArduinoCore-sam/variants/arduino_due_x/libsam_sam3x8e_gcc_rel.a(pwmc.o)
 .text.PWMC_EnableFaultProtection
                0x00000000       0x34 ../../lib/ArduinoCore-sam/variants/arduino_due_x/libsam_sam3x8e_gcc_rel.a(pwmc.o)
 .text.PWMC_ConfigureComparisonUnit
                0x00000000       0x4c ../../lib/ArduinoCore-sam/variants/arduino_due_x/libsam_sam3x8e_gcc_rel.a(pwmc.o)
 .text.PWMC_ConfigureEventLineMode
                0x00000000       0x30 ../../lib/ArduinoCore-sam/variants/arduino_due_x/libsam_sam3x8e_gcc_rel.a(pwmc.o)
 .rodata        0x00000000       0x2c ../../lib/ArduinoCore-sam/variants/arduino_due_x/libsam_sam3x8e_gcc_rel.a(pwmc.o)
 .rodata.__func__.6932
                0x00000000       0x1d ../../lib/ArduinoCore-sam/variants/arduino_due_x/libsam_sam3x8e_gcc_rel.a(pwmc.o)
 .rodata.__func__.6819
                0x00000000       0x19 ../../lib/ArduinoCore-sam/variants/arduino_due_x/libsam_sam3x8e_gcc_rel.a(pwmc.o)
 .rodata.__func__.6830
                0x00000000       0x15 ../../lib/ArduinoCore-sam/variants/arduino_due_x/libsam_sam3x8e_gcc_rel.a(pwmc.o)
 .rodata.__func__.6938
                0x00000000       0x1c ../../lib/ArduinoCore-sam/variants/arduino_due_x/libsam_sam3x8e_gcc_rel.a(pwmc.o)
 .rodata.__func__.6841
                0x00000000       0x12 ../../lib/ArduinoCore-sam/variants/arduino_due_x/libsam_sam3x8e_gcc_rel.a(pwmc.o)
 .rodata.str1.1
                0x00000000      0x1cc ../../lib/ArduinoCore-sam/variants/arduino_due_x/libsam_sam3x8e_gcc_rel.a(pwmc.o)
 .rodata.__func__.6848
                0x00000000       0x11 ../../lib/ArduinoCore-sam/variants/arduino_due_x/libsam_sam3x8e_gcc_rel.a(pwmc.o)
 .rodata.__func__.6804
                0x00000000       0x16 ../../lib/ArduinoCore-sam/variants/arduino_due_x/libsam_sam3x8e_gcc_rel.a(pwmc.o)
 .rodata.__func__.6793
                0x00000000       0x17 ../../lib/ArduinoCore-sam/variants/arduino_due_x/libsam_sam3x8e_gcc_rel.a(pwmc.o)
 .comment       0x00000000       0x71 ../../lib/ArduinoCore-sam/variants/arduino_due_x/libsam_sam3x8e_gcc_rel.a(pwmc.o)
 .ARM.attributes
                0x00000000       0x33 ../../lib/ArduinoCore-sam/variants/arduino_due_x/libsam_sam3x8e_gcc_rel.a(pwmc.o)
 .text          0x00000000        0x0 ../../lib/ArduinoCore-sam/variants/arduino_due_x/libsam_sam3x8e_gcc_rel.a(tc.o)
 .data          0x00000000        0x0 ../../lib/ArduinoCore-sam/variants/arduino_due_x/libsam_sam3x8e_gcc_rel.a(tc.o)
 .bss           0x00000000        0x0 ../../lib/ArduinoCore-sam/variants/arduino_due_x/libsam_sam3x8e_gcc_rel.a(tc.o)
 .text.TC_Configure
                0x00000000       0x38 ../../lib/ArduinoCore-sam/variants/arduino_due_x/libsam_sam3x8e_gcc_rel.a(tc.o)
 .text.TC_Start
                0x00000000       0x2c ../../lib/ArduinoCore-sam/variants/arduino_due_x/libsam_sam3x8e_gcc_rel.a(tc.o)
 .text.TC_Stop  0x00000000       0x2c ../../lib/ArduinoCore-sam/variants/arduino_due_x/libsam_sam3x8e_gcc_rel.a(tc.o)
 .text.TC_FindMckDivisor
                0x00000000       0x6a ../../lib/ArduinoCore-sam/variants/arduino_due_x/libsam_sam3x8e_gcc_rel.a(tc.o)
 .text.TC_ReadCV
                0x00000000        0x8 ../../lib/ArduinoCore-sam/variants/arduino_due_x/libsam_sam3x8e_gcc_rel.a(tc.o)
 .text.TC_GetStatus
                0x00000000        0x8 ../../lib/ArduinoCore-sam/variants/arduino_due_x/libsam_sam3x8e_gcc_rel.a(tc.o)
 .text.TC_SetRA
                0x00000000        0x8 ../../lib/ArduinoCore-sam/variants/arduino_due_x/libsam_sam3x8e_gcc_rel.a(tc.o)
 .text.TC_SetRB
                0x00000000        0x8 ../../lib/ArduinoCore-sam/variants/arduino_due_x/libsam_sam3x8e_gcc_rel.a(tc.o)
 .text.TC_SetRC
                0x00000000        0x8 ../../lib/ArduinoCore-sam/variants/arduino_due_x/libsam_sam3x8e_gcc_rel.a(tc.o)
 .rodata.__func__.6792
                0x00000000        0xd ../../lib/ArduinoCore-sam/variants/arduino_due_x/libsam_sam3x8e_gcc_rel.a(tc.o)
 .rodata.str1.1
                0x00000000       0x54 ../../lib/ArduinoCore-sam/variants/arduino_due_x/libsam_sam3x8e_gcc_rel.a(tc.o)
 .rodata.__func__.6798
                0x00000000        0x9 ../../lib/ArduinoCore-sam/variants/arduino_due_x/libsam_sam3x8e_gcc_rel.a(tc.o)
 .rodata.__func__.6804
                0x00000000        0x8 ../../lib/ArduinoCore-sam/variants/arduino_due_x/libsam_sam3x8e_gcc_rel.a(tc.o)
 .comment       0x00000000       0x71 ../../lib/ArduinoCore-sam/variants/arduino_due_x/libsam_sam3x8e_gcc_rel.a(tc.o)
 .ARM.attributes
                0x00000000       0x33 ../../lib/ArduinoCore-sam/variants/arduino_due_x/libsam_sam3x8e_gcc_rel.a(tc.o)
 .text          0x00000000        0x0 ../../lib/ArduinoCore-sam/variants/arduino_due_x/libsam_sam3x8e_gcc_rel.a(timetick.o)
 .data          0x00000000        0x0 ../../lib/ArduinoCore-sam/variants/arduino_due_x/libsam_sam3x8e_gcc_rel.a(timetick.o)
 .bss           0x00000000        0x0 ../../lib/ArduinoCore-sam/variants/arduino_due_x/libsam_sam3x8e_gcc_rel.a(timetick.o)
 .text.TimeTick_Configure
                0x00000000       0x34 ../../lib/ArduinoCore-sam/variants/arduino_due_x/libsam_sam3x8e_gcc_rel.a(timetick.o)
 .text.Wait     0x00000000       0x1c ../../lib/ArduinoCore-sam/variants/arduino_due_x/libsam_sam3x8e_gcc_rel.a(timetick.o)
 .text.Sleep    0x00000000       0x20 ../../lib/ArduinoCore-sam/variants/arduino_due_x/libsam_sam3x8e_gcc_rel.a(timetick.o)
 .text          0x00000000        0x0 ../../lib/ArduinoCore-sam/variants/arduino_due_x/libsam_sam3x8e_gcc_rel.a(wdt.o)
 .data          0x00000000        0x0 ../../lib/ArduinoCore-sam/variants/arduino_due_x/libsam_sam3x8e_gcc_rel.a(wdt.o)
 .bss           0x00000000        0x0 ../../lib/ArduinoCore-sam/variants/arduino_due_x/libsam_sam3x8e_gcc_rel.a(wdt.o)
 .text.WDT_Enable
                0x00000000        0x4 ../../lib/ArduinoCore-sam/variants/arduino_due_x/libsam_sam3x8e_gcc_rel.a(wdt.o)
 .text.WDT_Restart
                0x00000000        0xc ../../lib/ArduinoCore-sam/variants/arduino_due_x/libsam_sam3x8e_gcc_rel.a(wdt.o)
 .text.WDT_GetStatus
                0x00000000        0x8 ../../lib/ArduinoCore-sam/variants/arduino_due_x/libsam_sam3x8e_gcc_rel.a(wdt.o)
 .text.WDT_GetPeriod
                0x00000000       0x18 ../../lib/ArduinoCore-sam/variants/arduino_due_x/libsam_sam3x8e_gcc_rel.a(wdt.o)
 .text          0x00000000        0x0 ../../lib/ArduinoCore-sam/variants/arduino_due_x/libsam_sam3x8e_gcc_rel.a(system_sam3xa.o)
 .data          0x00000000        0x0 ../../lib/ArduinoCore-sam/variants/arduino_due_x/libsam_sam3x8e_gcc_rel.a(system_sam3xa.o)
 .bss           0x00000000        0x0 ../../lib/ArduinoCore-sam/variants/arduino_due_x/libsam_sam3x8e_gcc_rel.a(system_sam3xa.o)
 .text.SystemCoreClockUpdate
                0x00000000       0xd0 ../../lib/ArduinoCore-sam/variants/arduino_due_x/libsam_sam3x8e_gcc_rel.a(system_sam3xa.o)
 .text.system_init_flash
                0x00000000       0x54 ../../lib/ArduinoCore-sam/variants/arduino_due_x/libsam_sam3x8e_gcc_rel.a(system_sam3xa.o)
 .text          0x00000000        0x0 ../../lib/ArduinoCore-sam/variants/arduino_due_x/libsam_sam3x8e_gcc_rel.a(adc.o)
 .data          0x00000000        0x0 ../../lib/ArduinoCore-sam/variants/arduino_due_x/libsam_sam3x8e_gcc_rel.a(adc.o)
 .bss           0x00000000        0x0 ../../lib/ArduinoCore-sam/variants/arduino_due_x/libsam_sam3x8e_gcc_rel.a(adc.o)
 .text.adc_set_resolution
                0x00000000        0xe ../../lib/ArduinoCore-sam/variants/arduino_due_x/libsam_sam3x8e_gcc_rel.a(adc.o)
 .text.adc_configure_power_save
                0x00000000       0x16 ../../lib/ArduinoCore-sam/variants/arduino_due_x/libsam_sam3x8e_gcc_rel.a(adc.o)
 .text.adc_configure_sequence
                0x00000000       0x5a ../../lib/ArduinoCore-sam/variants/arduino_due_x/libsam_sam3x8e_gcc_rel.a(adc.o)
 .text.adc_enable_anch
                0x00000000        0xa ../../lib/ArduinoCore-sam/variants/arduino_due_x/libsam_sam3x8e_gcc_rel.a(adc.o)
 .text.adc_disable_anch
                0x00000000        0xa ../../lib/ArduinoCore-sam/variants/arduino_due_x/libsam_sam3x8e_gcc_rel.a(adc.o)
 .text.adc_start
                0x00000000        0x6 ../../lib/ArduinoCore-sam/variants/arduino_due_x/libsam_sam3x8e_gcc_rel.a(adc.o)
 .text.adc_stop
                0x00000000        0x6 ../../lib/ArduinoCore-sam/variants/arduino_due_x/libsam_sam3x8e_gcc_rel.a(adc.o)
 .text.adc_enable_channel
                0x00000000        0xa ../../lib/ArduinoCore-sam/variants/arduino_due_x/libsam_sam3x8e_gcc_rel.a(adc.o)
 .text.adc_enable_all_channel
                0x00000000        0x8 ../../lib/ArduinoCore-sam/variants/arduino_due_x/libsam_sam3x8e_gcc_rel.a(adc.o)
 .text.adc_get_channel_status
                0x00000000        0xa ../../lib/ArduinoCore-sam/variants/arduino_due_x/libsam_sam3x8e_gcc_rel.a(adc.o)
 .text.adc_get_channel_value
                0x00000000        0xe ../../lib/ArduinoCore-sam/variants/arduino_due_x/libsam_sam3x8e_gcc_rel.a(adc.o)
 .text.adc_get_latest_value
                0x00000000        0x4 ../../lib/ArduinoCore-sam/variants/arduino_due_x/libsam_sam3x8e_gcc_rel.a(adc.o)
 .text.adc_enable_tag
                0x00000000        0xa ../../lib/ArduinoCore-sam/variants/arduino_due_x/libsam_sam3x8e_gcc_rel.a(adc.o)
 .text.adc_disable_tag
                0x00000000        0xa ../../lib/ArduinoCore-sam/variants/arduino_due_x/libsam_sam3x8e_gcc_rel.a(adc.o)
 .text.adc_get_tag
                0x00000000        0x8 ../../lib/ArduinoCore-sam/variants/arduino_due_x/libsam_sam3x8e_gcc_rel.a(adc.o)
 .text.adc_start_sequencer
                0x00000000        0xa ../../lib/ArduinoCore-sam/variants/arduino_due_x/libsam_sam3x8e_gcc_rel.a(adc.o)
 .text.adc_stop_sequencer
                0x00000000        0xa ../../lib/ArduinoCore-sam/variants/arduino_due_x/libsam_sam3x8e_gcc_rel.a(adc.o)
 .text.adc_set_comparison_mode
                0x00000000       0x14 ../../lib/ArduinoCore-sam/variants/arduino_due_x/libsam_sam3x8e_gcc_rel.a(adc.o)
 .text.adc_get_comparison_mode
                0x00000000        0x8 ../../lib/ArduinoCore-sam/variants/arduino_due_x/libsam_sam3x8e_gcc_rel.a(adc.o)
 .text.adc_set_comparison_window
                0x00000000       0x18 ../../lib/ArduinoCore-sam/variants/arduino_due_x/libsam_sam3x8e_gcc_rel.a(adc.o)
 .text.adc_set_comparison_channel
                0x00000000       0x26 ../../lib/ArduinoCore-sam/variants/arduino_due_x/libsam_sam3x8e_gcc_rel.a(adc.o)
 .text.adc_enable_channel_differential_input
                0x00000000       0x10 ../../lib/ArduinoCore-sam/variants/arduino_due_x/libsam_sam3x8e_gcc_rel.a(adc.o)
 .text.adc_disable_channel_differential_input
                0x00000000       0x1a ../../lib/ArduinoCore-sam/variants/arduino_due_x/libsam_sam3x8e_gcc_rel.a(adc.o)
 .text.adc_enable_channel_input_offset
                0x00000000        0xe ../../lib/ArduinoCore-sam/variants/arduino_due_x/libsam_sam3x8e_gcc_rel.a(adc.o)
 .text.adc_disable_channel_input_offset
                0x00000000       0x1a ../../lib/ArduinoCore-sam/variants/arduino_due_x/libsam_sam3x8e_gcc_rel.a(adc.o)
 .text.adc_set_channel_input_gain
                0x00000000       0x12 ../../lib/ArduinoCore-sam/variants/arduino_due_x/libsam_sam3x8e_gcc_rel.a(adc.o)
 .text.adc_get_actual_adc_clock
                0x00000000       0x10 ../../lib/ArduinoCore-sam/variants/arduino_due_x/libsam_sam3x8e_gcc_rel.a(adc.o)
 .text.adc_enable_interrupt
                0x00000000        0x4 ../../lib/ArduinoCore-sam/variants/arduino_due_x/libsam_sam3x8e_gcc_rel.a(adc.o)
 .text.adc_get_status
                0x00000000        0x4 ../../lib/ArduinoCore-sam/variants/arduino_due_x/libsam_sam3x8e_gcc_rel.a(adc.o)
 .text.adc_get_overrun_status
                0x00000000        0x4 ../../lib/ArduinoCore-sam/variants/arduino_due_x/libsam_sam3x8e_gcc_rel.a(adc.o)
 .text.adc_get_interrupt_mask
                0x00000000        0x4 ../../lib/ArduinoCore-sam/variants/arduino_due_x/libsam_sam3x8e_gcc_rel.a(adc.o)
 .text.adc_set_bias_current
                0x00000000       0x12 ../../lib/ArduinoCore-sam/variants/arduino_due_x/libsam_sam3x8e_gcc_rel.a(adc.o)
 .text.adc_enable_ts
                0x00000000        0xe ../../lib/ArduinoCore-sam/variants/arduino_due_x/libsam_sam3x8e_gcc_rel.a(adc.o)
 .text.adc_disable_ts
                0x00000000        0xe ../../lib/ArduinoCore-sam/variants/arduino_due_x/libsam_sam3x8e_gcc_rel.a(adc.o)
 .text.adc_set_writeprotect
                0x00000000        0xe ../../lib/ArduinoCore-sam/variants/arduino_due_x/libsam_sam3x8e_gcc_rel.a(adc.o)
 .text.adc_get_writeprotect_status
                0x00000000        0xa ../../lib/ArduinoCore-sam/variants/arduino_due_x/libsam_sam3x8e_gcc_rel.a(adc.o)
 .text.adc_get_pdc_base
                0x00000000        0x8 ../../lib/ArduinoCore-sam/variants/arduino_due_x/libsam_sam3x8e_gcc_rel.a(adc.o)
 .text          0x00000000        0x0 ../../lib/ArduinoCore-sam/variants/arduino_due_x/libsam_sam3x8e_gcc_rel.a(dacc.o)
 .data          0x00000000        0x0 ../../lib/ArduinoCore-sam/variants/arduino_due_x/libsam_sam3x8e_gcc_rel.a(dacc.o)
 .bss           0x00000000        0x0 ../../lib/ArduinoCore-sam/variants/arduino_due_x/libsam_sam3x8e_gcc_rel.a(dacc.o)
 .text.dacc_reset
                0x00000000        0x6 ../../lib/ArduinoCore-sam/variants/arduino_due_x/libsam_sam3x8e_gcc_rel.a(dacc.o)
 .text.dacc_set_trigger
                0x00000000       0x18 ../../lib/ArduinoCore-sam/variants/arduino_due_x/libsam_sam3x8e_gcc_rel.a(dacc.o)
 .text.dacc_disable_trigger
                0x00000000        0xa ../../lib/ArduinoCore-sam/variants/arduino_due_x/libsam_sam3x8e_gcc_rel.a(dacc.o)
 .text.dacc_set_transfer_mode
                0x00000000       0x14 ../../lib/ArduinoCore-sam/variants/arduino_due_x/libsam_sam3x8e_gcc_rel.a(dacc.o)
 .text.dacc_enable_interrupt
                0x00000000        0x4 ../../lib/ArduinoCore-sam/variants/arduino_due_x/libsam_sam3x8e_gcc_rel.a(dacc.o)
 .text.dacc_disable_interrupt
                0x00000000        0x4 ../../lib/ArduinoCore-sam/variants/arduino_due_x/libsam_sam3x8e_gcc_rel.a(dacc.o)
 .text.dacc_get_interrupt_mask
                0x00000000        0x4 ../../lib/ArduinoCore-sam/variants/arduino_due_x/libsam_sam3x8e_gcc_rel.a(dacc.o)
 .text.dacc_get_interrupt_status
                0x00000000        0x4 ../../lib/ArduinoCore-sam/variants/arduino_due_x/libsam_sam3x8e_gcc_rel.a(dacc.o)
 .text.dacc_write_conversion_data
                0x00000000        0x4 ../../lib/ArduinoCore-sam/variants/arduino_due_x/libsam_sam3x8e_gcc_rel.a(dacc.o)
 .text.dacc_set_writeprotect
                0x00000000       0x18 ../../lib/ArduinoCore-sam/variants/arduino_due_x/libsam_sam3x8e_gcc_rel.a(dacc.o)
 .text.dacc_get_writeprotect_status
                0x00000000        0x6 ../../lib/ArduinoCore-sam/variants/arduino_due_x/libsam_sam3x8e_gcc_rel.a(dacc.o)
 .text.dacc_get_pdc_base
                0x00000000        0x8 ../../lib/ArduinoCore-sam/variants/arduino_due_x/libsam_sam3x8e_gcc_rel.a(dacc.o)
 .text.dacc_set_channel_selection
                0x00000000       0x18 ../../lib/ArduinoCore-sam/variants/arduino_due_x/libsam_sam3x8e_gcc_rel.a(dacc.o)
 .text.dacc_enable_flexible_selection
                0x00000000        0xa ../../lib/ArduinoCore-sam/variants/arduino_due_x/libsam_sam3x8e_gcc_rel.a(dacc.o)
 .text.dacc_set_power_save
                0x00000000       0x24 ../../lib/ArduinoCore-sam/variants/arduino_due_x/libsam_sam3x8e_gcc_rel.a(dacc.o)
 .text.dacc_set_timing
                0x00000000       0x2c ../../lib/ArduinoCore-sam/variants/arduino_due_x/libsam_sam3x8e_gcc_rel.a(dacc.o)
 .text.dacc_enable_channel
                0x00000000       0x12 ../../lib/ArduinoCore-sam/variants/arduino_due_x/libsam_sam3x8e_gcc_rel.a(dacc.o)
 .text.dacc_disable_channel
                0x00000000       0x12 ../../lib/ArduinoCore-sam/variants/arduino_due_x/libsam_sam3x8e_gcc_rel.a(dacc.o)
 .text.dacc_get_channel_status
                0x00000000        0x4 ../../lib/ArduinoCore-sam/variants/arduino_due_x/libsam_sam3x8e_gcc_rel.a(dacc.o)
 .text.dacc_set_analog_control
                0x00000000        0x8 ../../lib/ArduinoCore-sam/variants/arduino_due_x/libsam_sam3x8e_gcc_rel.a(dacc.o)
 .text.dacc_get_analog_control
                0x00000000        0x6 ../../lib/ArduinoCore-sam/variants/arduino_due_x/libsam_sam3x8e_gcc_rel.a(dacc.o)
 .comment       0x00000000       0x71 ../../lib/ArduinoCore-sam/variants/arduino_due_x/libsam_sam3x8e_gcc_rel.a(dacc.o)
 .ARM.attributes
                0x00000000       0x33 ../../lib/ArduinoCore-sam/variants/arduino_due_x/libsam_sam3x8e_gcc_rel.a(dacc.o)
 .text          0x00000000      0x254 c:/users/roxanne/desktop/programming/adkit/tools/arm-none-eabi-gcc/9.3.1-2020q2-windows/bin/../lib/gcc/arm-none-eabi/9.3.1/thumb/v7-m/nofp\libgcc.a(_arm_muldf3.o)
 .data          0x00000000        0x0 c:/users/roxanne/desktop/programming/adkit/tools/arm-none-eabi-gcc/9.3.1-2020q2-windows/bin/../lib/gcc/arm-none-eabi/9.3.1/thumb/v7-m/nofp\libgcc.a(_arm_muldf3.o)
 .bss           0x00000000        0x0 c:/users/roxanne/desktop/programming/adkit/tools/arm-none-eabi-gcc/9.3.1-2020q2-windows/bin/../lib/gcc/arm-none-eabi/9.3.1/thumb/v7-m/nofp\libgcc.a(_arm_muldf3.o)
 .debug_frame   0x00000000       0x30 c:/users/roxanne/desktop/programming/adkit/tools/arm-none-eabi-gcc/9.3.1-2020q2-windows/bin/../lib/gcc/arm-none-eabi/9.3.1/thumb/v7-m/nofp\libgcc.a(_arm_muldf3.o)
 .ARM.attributes
                0x00000000       0x1d c:/users/roxanne/desktop/programming/adkit/tools/arm-none-eabi-gcc/9.3.1-2020q2-windows/bin/../lib/gcc/arm-none-eabi/9.3.1/thumb/v7-m/nofp\libgcc.a(_arm_muldf3.o)
 .data          0x00000000        0x0 c:/users/roxanne/desktop/programming/adkit/tools/arm-none-eabi-gcc/9.3.1-2020q2-windows/bin/../lib/gcc/arm-none-eabi/9.3.1/thumb/v7-m/nofp\libgcc.a(_arm_addsubdf3.o)
 .bss           0x00000000        0x0 c:/users/roxanne/desktop/programming/adkit/tools/arm-none-eabi-gcc/9.3.1-2020q2-windows/bin/../lib/gcc/arm-none-eabi/9.3.1/thumb/v7-m/nofp\libgcc.a(_arm_addsubdf3.o)
 .data          0x00000000        0x0 c:/users/roxanne/desktop/programming/adkit/tools/arm-none-eabi-gcc/9.3.1-2020q2-windows/bin/../lib/gcc/arm-none-eabi/9.3.1/thumb/v7-m/nofp\libgcc.a(_arm_muldivdf3.o)
 .bss           0x00000000        0x0 c:/users/roxanne/desktop/programming/adkit/tools/arm-none-eabi-gcc/9.3.1-2020q2-windows/bin/../lib/gcc/arm-none-eabi/9.3.1/thumb/v7-m/nofp\libgcc.a(_arm_muldivdf3.o)
 .data          0x00000000        0x0 c:/users/roxanne/desktop/programming/adkit/tools/arm-none-eabi-gcc/9.3.1-2020q2-windows/bin/../lib/gcc/arm-none-eabi/9.3.1/thumb/v7-m/nofp\libgcc.a(_arm_cmpdf2.o)
 .bss           0x00000000        0x0 c:/users/roxanne/desktop/programming/adkit/tools/arm-none-eabi-gcc/9.3.1-2020q2-windows/bin/../lib/gcc/arm-none-eabi/9.3.1/thumb/v7-m/nofp\libgcc.a(_arm_cmpdf2.o)
 .data          0x00000000        0x0 c:/users/roxanne/desktop/programming/adkit/tools/arm-none-eabi-gcc/9.3.1-2020q2-windows/bin/../lib/gcc/arm-none-eabi/9.3.1/thumb/v7-m/nofp\libgcc.a(_arm_unorddf2.o)
 .bss           0x00000000        0x0 c:/users/roxanne/desktop/programming/adkit/tools/arm-none-eabi-gcc/9.3.1-2020q2-windows/bin/../lib/gcc/arm-none-eabi/9.3.1/thumb/v7-m/nofp\libgcc.a(_arm_unorddf2.o)
 .text          0x00000000       0x40 c:/users/roxanne/desktop/programming/adkit/tools/arm-none-eabi-gcc/9.3.1-2020q2-windows/bin/../lib/gcc/arm-none-eabi/9.3.1/thumb/v7-m/nofp\libgcc.a(_arm_fixunsdfsi.o)
 .data          0x00000000        0x0 c:/users/roxanne/desktop/programming/adkit/tools/arm-none-eabi-gcc/9.3.1-2020q2-windows/bin/../lib/gcc/arm-none-eabi/9.3.1/thumb/v7-m/nofp\libgcc.a(_arm_fixunsdfsi.o)
 .bss           0x00000000        0x0 c:/users/roxanne/desktop/programming/adkit/tools/arm-none-eabi-gcc/9.3.1-2020q2-windows/bin/../lib/gcc/arm-none-eabi/9.3.1/thumb/v7-m/nofp\libgcc.a(_arm_fixunsdfsi.o)
 .debug_frame   0x00000000       0x24 c:/users/roxanne/desktop/programming/adkit/tools/arm-none-eabi-gcc/9.3.1-2020q2-windows/bin/../lib/gcc/arm-none-eabi/9.3.1/thumb/v7-m/nofp\libgcc.a(_arm_fixunsdfsi.o)
 .ARM.attributes
                0x00000000       0x1d c:/users/roxanne/desktop/programming/adkit/tools/arm-none-eabi-gcc/9.3.1-2020q2-windows/bin/../lib/gcc/arm-none-eabi/9.3.1/thumb/v7-m/nofp\libgcc.a(_arm_fixunsdfsi.o)
 .data          0x00000000        0x0 c:/users/roxanne/desktop/programming/adkit/tools/arm-none-eabi-gcc/9.3.1-2020q2-windows/bin/../lib/gcc/arm-none-eabi/9.3.1/thumb/v7-m/nofp\libgcc.a(unwind-arm.o)
 .bss           0x00000000        0x0 c:/users/roxanne/desktop/programming/adkit/tools/arm-none-eabi-gcc/9.3.1-2020q2-windows/bin/../lib/gcc/arm-none-eabi/9.3.1/thumb/v7-m/nofp\libgcc.a(unwind-arm.o)
 .ARM.extab     0x00000000        0x0 c:/users/roxanne/desktop/programming/adkit/tools/arm-none-eabi-gcc/9.3.1-2020q2-windows/bin/../lib/gcc/arm-none-eabi/9.3.1/thumb/v7-m/nofp\libgcc.a(unwind-arm.o)
 .debug_frame   0x00000000      0x2f0 c:/users/roxanne/desktop/programming/adkit/tools/arm-none-eabi-gcc/9.3.1-2020q2-windows/bin/../lib/gcc/arm-none-eabi/9.3.1/thumb/v7-m/nofp\libgcc.a(unwind-arm.o)
 .ARM.attributes
                0x00000000       0x2d c:/users/roxanne/desktop/programming/adkit/tools/arm-none-eabi-gcc/9.3.1-2020q2-windows/bin/../lib/gcc/arm-none-eabi/9.3.1/thumb/v7-m/nofp\libgcc.a(unwind-arm.o)
 .data          0x00000000        0x0 c:/users/roxanne/desktop/programming/adkit/tools/arm-none-eabi-gcc/9.3.1-2020q2-windows/bin/../lib/gcc/arm-none-eabi/9.3.1/thumb/v7-m/nofp\libgcc.a(libunwind.o)
 .bss           0x00000000        0x0 c:/users/roxanne/desktop/programming/adkit/tools/arm-none-eabi-gcc/9.3.1-2020q2-windows/bin/../lib/gcc/arm-none-eabi/9.3.1/thumb/v7-m/nofp\libgcc.a(libunwind.o)
 .ARM.attributes
                0x00000000       0x1d c:/users/roxanne/desktop/programming/adkit/tools/arm-none-eabi-gcc/9.3.1-2020q2-windows/bin/../lib/gcc/arm-none-eabi/9.3.1/thumb/v7-m/nofp\libgcc.a(libunwind.o)
 .data          0x00000000        0x0 c:/users/roxanne/desktop/programming/adkit/tools/arm-none-eabi-gcc/9.3.1-2020q2-windows/bin/../lib/gcc/arm-none-eabi/9.3.1/thumb/v7-m/nofp\libgcc.a(pr-support.o)
 .bss           0x00000000        0x0 c:/users/roxanne/desktop/programming/adkit/tools/arm-none-eabi-gcc/9.3.1-2020q2-windows/bin/../lib/gcc/arm-none-eabi/9.3.1/thumb/v7-m/nofp\libgcc.a(pr-support.o)
 .text.unlikely
                0x00000000        0xc c:/users/roxanne/desktop/programming/adkit/tools/arm-none-eabi-gcc/9.3.1-2020q2-windows/bin/../lib/gcc/arm-none-eabi/9.3.1/thumb/v7-m/nofp\libgcc.a(pr-support.o)
 .ARM.extab.text.unlikely
                0x00000000        0x0 c:/users/roxanne/desktop/programming/adkit/tools/arm-none-eabi-gcc/9.3.1-2020q2-windows/bin/../lib/gcc/arm-none-eabi/9.3.1/thumb/v7-m/nofp\libgcc.a(pr-support.o)
 .ARM.exidx.text.unlikely
                0x00000000       0x10 c:/users/roxanne/desktop/programming/adkit/tools/arm-none-eabi-gcc/9.3.1-2020q2-windows/bin/../lib/gcc/arm-none-eabi/9.3.1/thumb/v7-m/nofp\libgcc.a(pr-support.o)
 .debug_frame   0x00000000      0x104 c:/users/roxanne/desktop/programming/adkit/tools/arm-none-eabi-gcc/9.3.1-2020q2-windows/bin/../lib/gcc/arm-none-eabi/9.3.1/thumb/v7-m/nofp\libgcc.a(pr-support.o)
 .ARM.attributes
                0x00000000       0x2d c:/users/roxanne/desktop/programming/adkit/tools/arm-none-eabi-gcc/9.3.1-2020q2-windows/bin/../lib/gcc/arm-none-eabi/9.3.1/thumb/v7-m/nofp\libgcc.a(pr-support.o)
 .text          0x00000000        0x0 c:/users/roxanne/desktop/programming/adkit/tools/arm-none-eabi-gcc/9.3.1-2020q2-windows/bin/../lib/gcc/arm-none-eabi/9.3.1/../../../../arm-none-eabi/lib/thumb/v7-m/nofp\libc.a(lib_a-abort.o)
 .data          0x00000000        0x0 c:/users/roxanne/desktop/programming/adkit/tools/arm-none-eabi-gcc/9.3.1-2020q2-windows/bin/../lib/gcc/arm-none-eabi/9.3.1/../../../../arm-none-eabi/lib/thumb/v7-m/nofp\libc.a(lib_a-abort.o)
 .bss           0x00000000        0x0 c:/users/roxanne/desktop/programming/adkit/tools/arm-none-eabi-gcc/9.3.1-2020q2-windows/bin/../lib/gcc/arm-none-eabi/9.3.1/../../../../arm-none-eabi/lib/thumb/v7-m/nofp\libc.a(lib_a-abort.o)
 .text          0x00000000        0x0 c:/users/roxanne/desktop/programming/adkit/tools/arm-none-eabi-gcc/9.3.1-2020q2-windows/bin/../lib/gcc/arm-none-eabi/9.3.1/../../../../arm-none-eabi/lib/thumb/v7-m/nofp\libc.a(lib_a-assert.o)
 .data          0x00000000        0x0 c:/users/roxanne/desktop/programming/adkit/tools/arm-none-eabi-gcc/9.3.1-2020q2-windows/bin/../lib/gcc/arm-none-eabi/9.3.1/../../../../arm-none-eabi/lib/thumb/v7-m/nofp\libc.a(lib_a-assert.o)
 .bss           0x00000000        0x0 c:/users/roxanne/desktop/programming/adkit/tools/arm-none-eabi-gcc/9.3.1-2020q2-windows/bin/../lib/gcc/arm-none-eabi/9.3.1/../../../../arm-none-eabi/lib/thumb/v7-m/nofp\libc.a(lib_a-assert.o)
 .text.__assert
                0x00000000        0xc c:/users/roxanne/desktop/programming/adkit/tools/arm-none-eabi-gcc/9.3.1-2020q2-windows/bin/../lib/gcc/arm-none-eabi/9.3.1/../../../../arm-none-eabi/lib/thumb/v7-m/nofp\libc.a(lib_a-assert.o)
 .text          0x00000000        0x0 c:/users/roxanne/desktop/programming/adkit/tools/arm-none-eabi-gcc/9.3.1-2020q2-windows/bin/../lib/gcc/arm-none-eabi/9.3.1/../../../../arm-none-eabi/lib/thumb/v7-m/nofp\libc.a(lib_a-exit.o)
 .data          0x00000000        0x0 c:/users/roxanne/desktop/programming/adkit/tools/arm-none-eabi-gcc/9.3.1-2020q2-windows/bin/../lib/gcc/arm-none-eabi/9.3.1/../../../../arm-none-eabi/lib/thumb/v7-m/nofp\libc.a(lib_a-exit.o)
 .bss           0x00000000        0x0 c:/users/roxanne/desktop/programming/adkit/tools/arm-none-eabi-gcc/9.3.1-2020q2-windows/bin/../lib/gcc/arm-none-eabi/9.3.1/../../../../arm-none-eabi/lib/thumb/v7-m/nofp\libc.a(lib_a-exit.o)
 .text.exit     0x00000000       0x20 c:/users/roxanne/desktop/programming/adkit/tools/arm-none-eabi-gcc/9.3.1-2020q2-windows/bin/../lib/gcc/arm-none-eabi/9.3.1/../../../../arm-none-eabi/lib/thumb/v7-m/nofp\libc.a(lib_a-exit.o)
 .debug_frame   0x00000000       0x28 c:/users/roxanne/desktop/programming/adkit/tools/arm-none-eabi-gcc/9.3.1-2020q2-windows/bin/../lib/gcc/arm-none-eabi/9.3.1/../../../../arm-none-eabi/lib/thumb/v7-m/nofp\libc.a(lib_a-exit.o)
 .ARM.attributes
                0x00000000       0x2d c:/users/roxanne/desktop/programming/adkit/tools/arm-none-eabi-gcc/9.3.1-2020q2-windows/bin/../lib/gcc/arm-none-eabi/9.3.1/../../../../arm-none-eabi/lib/thumb/v7-m/nofp\libc.a(lib_a-exit.o)
 .text          0x00000000        0x0 c:/users/roxanne/desktop/programming/adkit/tools/arm-none-eabi-gcc/9.3.1-2020q2-windows/bin/../lib/gcc/arm-none-eabi/9.3.1/../../../../arm-none-eabi/lib/thumb/v7-m/nofp\libc.a(lib_a-fiprintf.o)
 .data          0x00000000        0x0 c:/users/roxanne/desktop/programming/adkit/tools/arm-none-eabi-gcc/9.3.1-2020q2-windows/bin/../lib/gcc/arm-none-eabi/9.3.1/../../../../arm-none-eabi/lib/thumb/v7-m/nofp\libc.a(lib_a-fiprintf.o)
 .bss           0x00000000        0x0 c:/users/roxanne/desktop/programming/adkit/tools/arm-none-eabi-gcc/9.3.1-2020q2-windows/bin/../lib/gcc/arm-none-eabi/9.3.1/../../../../arm-none-eabi/lib/thumb/v7-m/nofp\libc.a(lib_a-fiprintf.o)
 .text._fiprintf_r
                0x00000000       0x1c c:/users/roxanne/desktop/programming/adkit/tools/arm-none-eabi-gcc/9.3.1-2020q2-windows/bin/../lib/gcc/arm-none-eabi/9.3.1/../../../../arm-none-eabi/lib/thumb/v7-m/nofp\libc.a(lib_a-fiprintf.o)
 .text          0x00000000        0x0 c:/users/roxanne/desktop/programming/adkit/tools/arm-none-eabi-gcc/9.3.1-2020q2-windows/bin/../lib/gcc/arm-none-eabi/9.3.1/../../../../arm-none-eabi/lib/thumb/v7-m/nofp\libc.a(lib_a-impure.o)
 .data          0x00000000        0x0 c:/users/roxanne/desktop/programming/adkit/tools/arm-none-eabi-gcc/9.3.1-2020q2-windows/bin/../lib/gcc/arm-none-eabi/9.3.1/../../../../arm-none-eabi/lib/thumb/v7-m/nofp\libc.a(lib_a-impure.o)
 .bss           0x00000000        0x0 c:/users/roxanne/desktop/programming/adkit/tools/arm-none-eabi-gcc/9.3.1-2020q2-windows/bin/../lib/gcc/arm-none-eabi/9.3.1/../../../../arm-none-eabi/lib/thumb/v7-m/nofp\libc.a(lib_a-impure.o)
 .text          0x00000000        0x0 c:/users/roxanne/desktop/programming/adkit/tools/arm-none-eabi-gcc/9.3.1-2020q2-windows/bin/../lib/gcc/arm-none-eabi/9.3.1/../../../../arm-none-eabi/lib/thumb/v7-m/nofp\libc.a(lib_a-init.o)
 .data          0x00000000        0x0 c:/users/roxanne/desktop/programming/adkit/tools/arm-none-eabi-gcc/9.3.1-2020q2-windows/bin/../lib/gcc/arm-none-eabi/9.3.1/../../../../arm-none-eabi/lib/thumb/v7-m/nofp\libc.a(lib_a-init.o)
 .bss           0x00000000        0x0 c:/users/roxanne/desktop/programming/adkit/tools/arm-none-eabi-gcc/9.3.1-2020q2-windows/bin/../lib/gcc/arm-none-eabi/9.3.1/../../../../arm-none-eabi/lib/thumb/v7-m/nofp\libc.a(lib_a-init.o)
 .data          0x00000000        0x0 c:/users/roxanne/desktop/programming/adkit/tools/arm-none-eabi-gcc/9.3.1-2020q2-windows/bin/../lib/gcc/arm-none-eabi/9.3.1/../../../../arm-none-eabi/lib/thumb/v7-m/nofp\libc.a(lib_a-memcpy.o)
 .bss           0x00000000        0x0 c:/users/roxanne/desktop/programming/adkit/tools/arm-none-eabi-gcc/9.3.1-2020q2-windows/bin/../lib/gcc/arm-none-eabi/9.3.1/../../../../arm-none-eabi/lib/thumb/v7-m/nofp\libc.a(lib_a-memcpy.o)
 .text          0x00000000        0x0 c:/users/roxanne/desktop/programming/adkit/tools/arm-none-eabi-gcc/9.3.1-2020q2-windows/bin/../lib/gcc/arm-none-eabi/9.3.1/../../../../arm-none-eabi/lib/thumb/v7-m/nofp\libc.a(lib_a-memset.o)
 .data          0x00000000        0x0 c:/users/roxanne/desktop/programming/adkit/tools/arm-none-eabi-gcc/9.3.1-2020q2-windows/bin/../lib/gcc/arm-none-eabi/9.3.1/../../../../arm-none-eabi/lib/thumb/v7-m/nofp\libc.a(lib_a-memset.o)
 .bss           0x00000000        0x0 c:/users/roxanne/desktop/programming/adkit/tools/arm-none-eabi-gcc/9.3.1-2020q2-windows/bin/../lib/gcc/arm-none-eabi/9.3.1/../../../../arm-none-eabi/lib/thumb/v7-m/nofp\libc.a(lib_a-memset.o)
 .text          0x00000000        0x0 c:/users/roxanne/desktop/programming/adkit/tools/arm-none-eabi-gcc/9.3.1-2020q2-windows/bin/../lib/gcc/arm-none-eabi/9.3.1/../../../../arm-none-eabi/lib/thumb/v7-m/nofp\libc.a(lib_a-printf.o)
 .data          0x00000000        0x0 c:/users/roxanne/desktop/programming/adkit/tools/arm-none-eabi-gcc/9.3.1-2020q2-windows/bin/../lib/gcc/arm-none-eabi/9.3.1/../../../../arm-none-eabi/lib/thumb/v7-m/nofp\libc.a(lib_a-printf.o)
 .bss           0x00000000        0x0 c:/users/roxanne/desktop/programming/adkit/tools/arm-none-eabi-gcc/9.3.1-2020q2-windows/bin/../lib/gcc/arm-none-eabi/9.3.1/../../../../arm-none-eabi/lib/thumb/v7-m/nofp\libc.a(lib_a-printf.o)
 .text._printf_r
                0x00000000       0x20 c:/users/roxanne/desktop/programming/adkit/tools/arm-none-eabi-gcc/9.3.1-2020q2-windows/bin/../lib/gcc/arm-none-eabi/9.3.1/../../../../arm-none-eabi/lib/thumb/v7-m/nofp\libc.a(lib_a-printf.o)
 .text          0x00000000        0x0 c:/users/roxanne/desktop/programming/adkit/tools/arm-none-eabi-gcc/9.3.1-2020q2-windows/bin/../lib/gcc/arm-none-eabi/9.3.1/../../../../arm-none-eabi/lib/thumb/v7-m/nofp\libc.a(lib_a-putchar.o)
 .data          0x00000000        0x0 c:/users/roxanne/desktop/programming/adkit/tools/arm-none-eabi-gcc/9.3.1-2020q2-windows/bin/../lib/gcc/arm-none-eabi/9.3.1/../../../../arm-none-eabi/lib/thumb/v7-m/nofp\libc.a(lib_a-putchar.o)
 .bss           0x00000000        0x0 c:/users/roxanne/desktop/programming/adkit/tools/arm-none-eabi-gcc/9.3.1-2020q2-windows/bin/../lib/gcc/arm-none-eabi/9.3.1/../../../../arm-none-eabi/lib/thumb/v7-m/nofp\libc.a(lib_a-putchar.o)
 .text._putchar_r
                0x00000000        0x8 c:/users/roxanne/desktop/programming/adkit/tools/arm-none-eabi-gcc/9.3.1-2020q2-windows/bin/../lib/gcc/arm-none-eabi/9.3.1/../../../../arm-none-eabi/lib/thumb/v7-m/nofp\libc.a(lib_a-putchar.o)
 .text          0x00000000        0x0 c:/users/roxanne/desktop/programming/adkit/tools/arm-none-eabi-gcc/9.3.1-2020q2-windows/bin/../lib/gcc/arm-none-eabi/9.3.1/../../../../arm-none-eabi/lib/thumb/v7-m/nofp\libc.a(lib_a-signal.o)
 .data          0x00000000        0x0 c:/users/roxanne/desktop/programming/adkit/tools/arm-none-eabi-gcc/9.3.1-2020q2-windows/bin/../lib/gcc/arm-none-eabi/9.3.1/../../../../arm-none-eabi/lib/thumb/v7-m/nofp\libc.a(lib_a-signal.o)
 .bss           0x00000000        0x0 c:/users/roxanne/desktop/programming/adkit/tools/arm-none-eabi-gcc/9.3.1-2020q2-windows/bin/../lib/gcc/arm-none-eabi/9.3.1/../../../../arm-none-eabi/lib/thumb/v7-m/nofp\libc.a(lib_a-signal.o)
 .text._init_signal_r.part.0
                0x00000000       0x2c c:/users/roxanne/desktop/programming/adkit/tools/arm-none-eabi-gcc/9.3.1-2020q2-windows/bin/../lib/gcc/arm-none-eabi/9.3.1/../../../../arm-none-eabi/lib/thumb/v7-m/nofp\libc.a(lib_a-signal.o)
 .text._init_signal_r
                0x00000000       0x10 c:/users/roxanne/desktop/programming/adkit/tools/arm-none-eabi-gcc/9.3.1-2020q2-windows/bin/../lib/gcc/arm-none-eabi/9.3.1/../../../../arm-none-eabi/lib/thumb/v7-m/nofp\libc.a(lib_a-signal.o)
 .text._signal_r
                0x00000000       0x38 c:/users/roxanne/desktop/programming/adkit/tools/arm-none-eabi-gcc/9.3.1-2020q2-windows/bin/../lib/gcc/arm-none-eabi/9.3.1/../../../../arm-none-eabi/lib/thumb/v7-m/nofp\libc.a(lib_a-signal.o)
 .text.__sigtramp_r
                0x00000000       0x54 c:/users/roxanne/desktop/programming/adkit/tools/arm-none-eabi-gcc/9.3.1-2020q2-windows/bin/../lib/gcc/arm-none-eabi/9.3.1/../../../../arm-none-eabi/lib/thumb/v7-m/nofp\libc.a(lib_a-signal.o)
 .text.signal   0x00000000       0x10 c:/users/roxanne/desktop/programming/adkit/tools/arm-none-eabi-gcc/9.3.1-2020q2-windows/bin/../lib/gcc/arm-none-eabi/9.3.1/../../../../arm-none-eabi/lib/thumb/v7-m/nofp\libc.a(lib_a-signal.o)
 .text._init_signal
                0x00000000       0x18 c:/users/roxanne/desktop/programming/adkit/tools/arm-none-eabi-gcc/9.3.1-2020q2-windows/bin/../lib/gcc/arm-none-eabi/9.3.1/../../../../arm-none-eabi/lib/thumb/v7-m/nofp\libc.a(lib_a-signal.o)
 .text.__sigtramp
                0x00000000       0x10 c:/users/roxanne/desktop/programming/adkit/tools/arm-none-eabi-gcc/9.3.1-2020q2-windows/bin/../lib/gcc/arm-none-eabi/9.3.1/../../../../arm-none-eabi/lib/thumb/v7-m/nofp\libc.a(lib_a-signal.o)
 .text          0x00000000        0x0 c:/users/roxanne/desktop/programming/adkit/tools/arm-none-eabi-gcc/9.3.1-2020q2-windows/bin/../lib/gcc/arm-none-eabi/9.3.1/../../../../arm-none-eabi/lib/thumb/v7-m/nofp\libc.a(lib_a-signalr.o)
 .data          0x00000000        0x0 c:/users/roxanne/desktop/programming/adkit/tools/arm-none-eabi-gcc/9.3.1-2020q2-windows/bin/../lib/gcc/arm-none-eabi/9.3.1/../../../../arm-none-eabi/lib/thumb/v7-m/nofp\libc.a(lib_a-signalr.o)
 .bss           0x00000000        0x0 c:/users/roxanne/desktop/programming/adkit/tools/arm-none-eabi-gcc/9.3.1-2020q2-windows/bin/../lib/gcc/arm-none-eabi/9.3.1/../../../../arm-none-eabi/lib/thumb/v7-m/nofp\libc.a(lib_a-signalr.o)
 .text          0x00000000        0x0 c:/users/roxanne/desktop/programming/adkit/tools/arm-none-eabi-gcc/9.3.1-2020q2-windows/bin/../lib/gcc/arm-none-eabi/9.3.1/../../../../arm-none-eabi/lib/thumb/v7-m/nofp\libc.a(lib_a-strlen-stub.o)
 .data          0x00000000        0x0 c:/users/roxanne/desktop/programming/adkit/tools/arm-none-eabi-gcc/9.3.1-2020q2-windows/bin/../lib/gcc/arm-none-eabi/9.3.1/../../../../arm-none-eabi/lib/thumb/v7-m/nofp\libc.a(lib_a-strlen-stub.o)
 .bss           0x00000000        0x0 c:/users/roxanne/desktop/programming/adkit/tools/arm-none-eabi-gcc/9.3.1-2020q2-windows/bin/../lib/gcc/arm-none-eabi/9.3.1/../../../../arm-none-eabi/lib/thumb/v7-m/nofp\libc.a(lib_a-strlen-stub.o)
 .text          0x00000000        0x0 c:/users/roxanne/desktop/programming/adkit/tools/arm-none-eabi-gcc/9.3.1-2020q2-windows/bin/../lib/gcc/arm-none-eabi/9.3.1/../../../../arm-none-eabi/lib/thumb/v7-m/nofp\libc.a(lib_a-syskill.o)
 .data          0x00000000        0x0 c:/users/roxanne/desktop/programming/adkit/tools/arm-none-eabi-gcc/9.3.1-2020q2-windows/bin/../lib/gcc/arm-none-eabi/9.3.1/../../../../arm-none-eabi/lib/thumb/v7-m/nofp\libc.a(lib_a-syskill.o)
 .bss           0x00000000        0x0 c:/users/roxanne/desktop/programming/adkit/tools/arm-none-eabi-gcc/9.3.1-2020q2-windows/bin/../lib/gcc/arm-none-eabi/9.3.1/../../../../arm-none-eabi/lib/thumb/v7-m/nofp\libc.a(lib_a-syskill.o)
 .text          0x00000000        0x0 c:/users/roxanne/desktop/programming/adkit/tools/arm-none-eabi-gcc/9.3.1-2020q2-windows/bin/../lib/gcc/arm-none-eabi/9.3.1/../../../../arm-none-eabi/lib/thumb/v7-m/nofp\libc.a(lib_a-vfiprintf.o)
 .data          0x00000000        0x0 c:/users/roxanne/desktop/programming/adkit/tools/arm-none-eabi-gcc/9.3.1-2020q2-windows/bin/../lib/gcc/arm-none-eabi/9.3.1/../../../../arm-none-eabi/lib/thumb/v7-m/nofp\libc.a(lib_a-vfiprintf.o)
 .bss           0x00000000        0x0 c:/users/roxanne/desktop/programming/adkit/tools/arm-none-eabi-gcc/9.3.1-2020q2-windows/bin/../lib/gcc/arm-none-eabi/9.3.1/../../../../arm-none-eabi/lib/thumb/v7-m/nofp\libc.a(lib_a-vfiprintf.o)
 .text.vfiprintf
                0x00000000       0x18 c:/users/roxanne/desktop/programming/adkit/tools/arm-none-eabi-gcc/9.3.1-2020q2-windows/bin/../lib/gcc/arm-none-eabi/9.3.1/../../../../arm-none-eabi/lib/thumb/v7-m/nofp\libc.a(lib_a-vfiprintf.o)
 .text          0x00000000        0x0 c:/users/roxanne/desktop/programming/adkit/tools/arm-none-eabi-gcc/9.3.1-2020q2-windows/bin/../lib/gcc/arm-none-eabi/9.3.1/../../../../arm-none-eabi/lib/thumb/v7-m/nofp\libc.a(lib_a-vfprintf.o)
 .data          0x00000000        0x0 c:/users/roxanne/desktop/programming/adkit/tools/arm-none-eabi-gcc/9.3.1-2020q2-windows/bin/../lib/gcc/arm-none-eabi/9.3.1/../../../../arm-none-eabi/lib/thumb/v7-m/nofp\libc.a(lib_a-vfprintf.o)
 .bss           0x00000000        0x0 c:/users/roxanne/desktop/programming/adkit/tools/arm-none-eabi-gcc/9.3.1-2020q2-windows/bin/../lib/gcc/arm-none-eabi/9.3.1/../../../../arm-none-eabi/lib/thumb/v7-m/nofp\libc.a(lib_a-vfprintf.o)
 .text.vfprintf
                0x00000000       0x18 c:/users/roxanne/desktop/programming/adkit/tools/arm-none-eabi-gcc/9.3.1-2020q2-windows/bin/../lib/gcc/arm-none-eabi/9.3.1/../../../../arm-none-eabi/lib/thumb/v7-m/nofp\libc.a(lib_a-vfprintf.o)
 .text          0x00000000        0x0 c:/users/roxanne/desktop/programming/adkit/tools/arm-none-eabi-gcc/9.3.1-2020q2-windows/bin/../lib/gcc/arm-none-eabi/9.3.1/../../../../arm-none-eabi/lib/thumb/v7-m/nofp\libc.a(lib_a-wsetup.o)
 .data          0x00000000        0x0 c:/users/roxanne/desktop/programming/adkit/tools/arm-none-eabi-gcc/9.3.1-2020q2-windows/bin/../lib/gcc/arm-none-eabi/9.3.1/../../../../arm-none-eabi/lib/thumb/v7-m/nofp\libc.a(lib_a-wsetup.o)
 .bss           0x00000000        0x0 c:/users/roxanne/desktop/programming/adkit/tools/arm-none-eabi-gcc/9.3.1-2020q2-windows/bin/../lib/gcc/arm-none-eabi/9.3.1/../../../../arm-none-eabi/lib/thumb/v7-m/nofp\libc.a(lib_a-wsetup.o)
 .text          0x00000000        0x0 c:/users/roxanne/desktop/programming/adkit/tools/arm-none-eabi-gcc/9.3.1-2020q2-windows/bin/../lib/gcc/arm-none-eabi/9.3.1/../../../../arm-none-eabi/lib/thumb/v7-m/nofp\libc.a(lib_a-__call_atexit.o)
 .data          0x00000000        0x0 c:/users/roxanne/desktop/programming/adkit/tools/arm-none-eabi-gcc/9.3.1-2020q2-windows/bin/../lib/gcc/arm-none-eabi/9.3.1/../../../../arm-none-eabi/lib/thumb/v7-m/nofp\libc.a(lib_a-__call_atexit.o)
 .bss           0x00000000        0x0 c:/users/roxanne/desktop/programming/adkit/tools/arm-none-eabi-gcc/9.3.1-2020q2-windows/bin/../lib/gcc/arm-none-eabi/9.3.1/../../../../arm-none-eabi/lib/thumb/v7-m/nofp\libc.a(lib_a-__call_atexit.o)
 .text.__call_exitprocs
                0x00000000       0xc0 c:/users/roxanne/desktop/programming/adkit/tools/arm-none-eabi-gcc/9.3.1-2020q2-windows/bin/../lib/gcc/arm-none-eabi/9.3.1/../../../../arm-none-eabi/lib/thumb/v7-m/nofp\libc.a(lib_a-__call_atexit.o)
 .text          0x00000000        0x0 c:/users/roxanne/desktop/programming/adkit/tools/arm-none-eabi-gcc/9.3.1-2020q2-windows/bin/../lib/gcc/arm-none-eabi/9.3.1/../../../../arm-none-eabi/lib/thumb/v7-m/nofp\libc.a(lib_a-atexit.o)
 .data          0x00000000        0x0 c:/users/roxanne/desktop/programming/adkit/tools/arm-none-eabi-gcc/9.3.1-2020q2-windows/bin/../lib/gcc/arm-none-eabi/9.3.1/../../../../arm-none-eabi/lib/thumb/v7-m/nofp\libc.a(lib_a-atexit.o)
 .bss           0x00000000        0x0 c:/users/roxanne/desktop/programming/adkit/tools/arm-none-eabi-gcc/9.3.1-2020q2-windows/bin/../lib/gcc/arm-none-eabi/9.3.1/../../../../arm-none-eabi/lib/thumb/v7-m/nofp\libc.a(lib_a-atexit.o)
 .text          0x00000000        0x0 c:/users/roxanne/desktop/programming/adkit/tools/arm-none-eabi-gcc/9.3.1-2020q2-windows/bin/../lib/gcc/arm-none-eabi/9.3.1/../../../../arm-none-eabi/lib/thumb/v7-m/nofp\libc.a(lib_a-dtoa.o)
 .data          0x00000000        0x0 c:/users/roxanne/desktop/programming/adkit/tools/arm-none-eabi-gcc/9.3.1-2020q2-windows/bin/../lib/gcc/arm-none-eabi/9.3.1/../../../../arm-none-eabi/lib/thumb/v7-m/nofp\libc.a(lib_a-dtoa.o)
 .bss           0x00000000        0x0 c:/users/roxanne/desktop/programming/adkit/tools/arm-none-eabi-gcc/9.3.1-2020q2-windows/bin/../lib/gcc/arm-none-eabi/9.3.1/../../../../arm-none-eabi/lib/thumb/v7-m/nofp\libc.a(lib_a-dtoa.o)
 .text          0x00000000        0x0 c:/users/roxanne/desktop/programming/adkit/tools/arm-none-eabi-gcc/9.3.1-2020q2-windows/bin/../lib/gcc/arm-none-eabi/9.3.1/../../../../arm-none-eabi/lib/thumb/v7-m/nofp\libc.a(lib_a-fflush.o)
 .data          0x00000000        0x0 c:/users/roxanne/desktop/programming/adkit/tools/arm-none-eabi-gcc/9.3.1-2020q2-windows/bin/../lib/gcc/arm-none-eabi/9.3.1/../../../../arm-none-eabi/lib/thumb/v7-m/nofp\libc.a(lib_a-fflush.o)
 .bss           0x00000000        0x0 c:/users/roxanne/desktop/programming/adkit/tools/arm-none-eabi-gcc/9.3.1-2020q2-windows/bin/../lib/gcc/arm-none-eabi/9.3.1/../../../../arm-none-eabi/lib/thumb/v7-m/nofp\libc.a(lib_a-fflush.o)
 .text.fflush   0x00000000       0x24 c:/users/roxanne/desktop/programming/adkit/tools/arm-none-eabi-gcc/9.3.1-2020q2-windows/bin/../lib/gcc/arm-none-eabi/9.3.1/../../../../arm-none-eabi/lib/thumb/v7-m/nofp\libc.a(lib_a-fflush.o)
 .text          0x00000000        0x0 c:/users/roxanne/desktop/programming/adkit/tools/arm-none-eabi-gcc/9.3.1-2020q2-windows/bin/../lib/gcc/arm-none-eabi/9.3.1/../../../../arm-none-eabi/lib/thumb/v7-m/nofp\libc.a(lib_a-findfp.o)
 .data          0x00000000        0x0 c:/users/roxanne/desktop/programming/adkit/tools/arm-none-eabi-gcc/9.3.1-2020q2-windows/bin/../lib/gcc/arm-none-eabi/9.3.1/../../../../arm-none-eabi/lib/thumb/v7-m/nofp\libc.a(lib_a-findfp.o)
 .bss           0x00000000        0x0 c:/users/roxanne/desktop/programming/adkit/tools/arm-none-eabi-gcc/9.3.1-2020q2-windows/bin/../lib/gcc/arm-none-eabi/9.3.1/../../../../arm-none-eabi/lib/thumb/v7-m/nofp\libc.a(lib_a-findfp.o)
 .text.__fp_lock
                0x00000000       0x1c c:/users/roxanne/desktop/programming/adkit/tools/arm-none-eabi-gcc/9.3.1-2020q2-windows/bin/../lib/gcc/arm-none-eabi/9.3.1/../../../../arm-none-eabi/lib/thumb/v7-m/nofp\libc.a(lib_a-findfp.o)
 .text.__fp_unlock
                0x00000000       0x1c c:/users/roxanne/desktop/programming/adkit/tools/arm-none-eabi-gcc/9.3.1-2020q2-windows/bin/../lib/gcc/arm-none-eabi/9.3.1/../../../../arm-none-eabi/lib/thumb/v7-m/nofp\libc.a(lib_a-findfp.o)
 .text.__sfmoreglue
                0x00000000       0x30 c:/users/roxanne/desktop/programming/adkit/tools/arm-none-eabi-gcc/9.3.1-2020q2-windows/bin/../lib/gcc/arm-none-eabi/9.3.1/../../../../arm-none-eabi/lib/thumb/v7-m/nofp\libc.a(lib_a-findfp.o)
 .text._cleanup
                0x00000000       0x14 c:/users/roxanne/desktop/programming/adkit/tools/arm-none-eabi-gcc/9.3.1-2020q2-windows/bin/../lib/gcc/arm-none-eabi/9.3.1/../../../../arm-none-eabi/lib/thumb/v7-m/nofp\libc.a(lib_a-findfp.o)
 .text.__sfp    0x00000000       0xa4 c:/users/roxanne/desktop/programming/adkit/tools/arm-none-eabi-gcc/9.3.1-2020q2-windows/bin/../lib/gcc/arm-none-eabi/9.3.1/../../../../arm-none-eabi/lib/thumb/v7-m/nofp\libc.a(lib_a-findfp.o)
 .text.__sinit_lock_acquire
                0x00000000        0xc c:/users/roxanne/desktop/programming/adkit/tools/arm-none-eabi-gcc/9.3.1-2020q2-windows/bin/../lib/gcc/arm-none-eabi/9.3.1/../../../../arm-none-eabi/lib/thumb/v7-m/nofp\libc.a(lib_a-findfp.o)
 .text.__sinit_lock_release
                0x00000000        0xc c:/users/roxanne/desktop/programming/adkit/tools/arm-none-eabi-gcc/9.3.1-2020q2-windows/bin/../lib/gcc/arm-none-eabi/9.3.1/../../../../arm-none-eabi/lib/thumb/v7-m/nofp\libc.a(lib_a-findfp.o)
 .text.__fp_lock_all
                0x00000000       0x24 c:/users/roxanne/desktop/programming/adkit/tools/arm-none-eabi-gcc/9.3.1-2020q2-windows/bin/../lib/gcc/arm-none-eabi/9.3.1/../../../../arm-none-eabi/lib/thumb/v7-m/nofp\libc.a(lib_a-findfp.o)
 .text.__fp_unlock_all
                0x00000000       0x24 c:/users/roxanne/desktop/programming/adkit/tools/arm-none-eabi-gcc/9.3.1-2020q2-windows/bin/../lib/gcc/arm-none-eabi/9.3.1/../../../../arm-none-eabi/lib/thumb/v7-m/nofp\libc.a(lib_a-findfp.o)
 .text          0x00000000        0x0 c:/users/roxanne/desktop/programming/adkit/tools/arm-none-eabi-gcc/9.3.1-2020q2-windows/bin/../lib/gcc/arm-none-eabi/9.3.1/../../../../arm-none-eabi/lib/thumb/v7-m/nofp\libc.a(lib_a-fini.o)
 .data          0x00000000        0x0 c:/users/roxanne/desktop/programming/adkit/tools/arm-none-eabi-gcc/9.3.1-2020q2-windows/bin/../lib/gcc/arm-none-eabi/9.3.1/../../../../arm-none-eabi/lib/thumb/v7-m/nofp\libc.a(lib_a-fini.o)
 .bss           0x00000000        0x0 c:/users/roxanne/desktop/programming/adkit/tools/arm-none-eabi-gcc/9.3.1-2020q2-windows/bin/../lib/gcc/arm-none-eabi/9.3.1/../../../../arm-none-eabi/lib/thumb/v7-m/nofp\libc.a(lib_a-fini.o)
 .text          0x00000000        0x0 c:/users/roxanne/desktop/programming/adkit/tools/arm-none-eabi-gcc/9.3.1-2020q2-windows/bin/../lib/gcc/arm-none-eabi/9.3.1/../../../../arm-none-eabi/lib/thumb/v7-m/nofp\libc.a(lib_a-fputwc.o)
 .data          0x00000000        0x0 c:/users/roxanne/desktop/programming/adkit/tools/arm-none-eabi-gcc/9.3.1-2020q2-windows/bin/../lib/gcc/arm-none-eabi/9.3.1/../../../../arm-none-eabi/lib/thumb/v7-m/nofp\libc.a(lib_a-fputwc.o)
 .bss           0x00000000        0x0 c:/users/roxanne/desktop/programming/adkit/tools/arm-none-eabi-gcc/9.3.1-2020q2-windows/bin/../lib/gcc/arm-none-eabi/9.3.1/../../../../arm-none-eabi/lib/thumb/v7-m/nofp\libc.a(lib_a-fputwc.o)
 .text.fputwc   0x00000000       0x38 c:/users/roxanne/desktop/programming/adkit/tools/arm-none-eabi-gcc/9.3.1-2020q2-windows/bin/../lib/gcc/arm-none-eabi/9.3.1/../../../../arm-none-eabi/lib/thumb/v7-m/nofp\libc.a(lib_a-fputwc.o)
 .text          0x00000000        0x0 c:/users/roxanne/desktop/programming/adkit/tools/arm-none-eabi-gcc/9.3.1-2020q2-windows/bin/../lib/gcc/arm-none-eabi/9.3.1/../../../../arm-none-eabi/lib/thumb/v7-m/nofp\libc.a(lib_a-freer.o)
 .data          0x00000000        0x0 c:/users/roxanne/desktop/programming/adkit/tools/arm-none-eabi-gcc/9.3.1-2020q2-windows/bin/../lib/gcc/arm-none-eabi/9.3.1/../../../../arm-none-eabi/lib/thumb/v7-m/nofp\libc.a(lib_a-freer.o)
 .bss           0x00000000        0x0 c:/users/roxanne/desktop/programming/adkit/tools/arm-none-eabi-gcc/9.3.1-2020q2-windows/bin/../lib/gcc/arm-none-eabi/9.3.1/../../../../arm-none-eabi/lib/thumb/v7-m/nofp\libc.a(lib_a-freer.o)
 .text          0x00000000        0x0 c:/users/roxanne/desktop/programming/adkit/tools/arm-none-eabi-gcc/9.3.1-2020q2-windows/bin/../lib/gcc/arm-none-eabi/9.3.1/../../../../arm-none-eabi/lib/thumb/v7-m/nofp\libc.a(lib_a-fvwrite.o)
 .data          0x00000000        0x0 c:/users/roxanne/desktop/programming/adkit/tools/arm-none-eabi-gcc/9.3.1-2020q2-windows/bin/../lib/gcc/arm-none-eabi/9.3.1/../../../../arm-none-eabi/lib/thumb/v7-m/nofp\libc.a(lib_a-fvwrite.o)
 .bss           0x00000000        0x0 c:/users/roxanne/desktop/programming/adkit/tools/arm-none-eabi-gcc/9.3.1-2020q2-windows/bin/../lib/gcc/arm-none-eabi/9.3.1/../../../../arm-none-eabi/lib/thumb/v7-m/nofp\libc.a(lib_a-fvwrite.o)
 .text          0x00000000        0x0 c:/users/roxanne/desktop/programming/adkit/tools/arm-none-eabi-gcc/9.3.1-2020q2-windows/bin/../lib/gcc/arm-none-eabi/9.3.1/../../../../arm-none-eabi/lib/thumb/v7-m/nofp\libc.a(lib_a-fwalk.o)
 .data          0x00000000        0x0 c:/users/roxanne/desktop/programming/adkit/tools/arm-none-eabi-gcc/9.3.1-2020q2-windows/bin/../lib/gcc/arm-none-eabi/9.3.1/../../../../arm-none-eabi/lib/thumb/v7-m/nofp\libc.a(lib_a-fwalk.o)
 .bss           0x00000000        0x0 c:/users/roxanne/desktop/programming/adkit/tools/arm-none-eabi-gcc/9.3.1-2020q2-windows/bin/../lib/gcc/arm-none-eabi/9.3.1/../../../../arm-none-eabi/lib/thumb/v7-m/nofp\libc.a(lib_a-fwalk.o)
 .text._fwalk   0x00000000       0x40 c:/users/roxanne/desktop/programming/adkit/tools/arm-none-eabi-gcc/9.3.1-2020q2-windows/bin/../lib/gcc/arm-none-eabi/9.3.1/../../../../arm-none-eabi/lib/thumb/v7-m/nofp\libc.a(lib_a-fwalk.o)
 .text          0x00000000        0x0 c:/users/roxanne/desktop/programming/adkit/tools/arm-none-eabi-gcc/9.3.1-2020q2-windows/bin/../lib/gcc/arm-none-eabi/9.3.1/../../../../arm-none-eabi/lib/thumb/v7-m/nofp\libc.a(lib_a-locale.o)
 .data          0x00000000        0x0 c:/users/roxanne/desktop/programming/adkit/tools/arm-none-eabi-gcc/9.3.1-2020q2-windows/bin/../lib/gcc/arm-none-eabi/9.3.1/../../../../arm-none-eabi/lib/thumb/v7-m/nofp\libc.a(lib_a-locale.o)
 .bss           0x00000000        0x0 c:/users/roxanne/desktop/programming/adkit/tools/arm-none-eabi-gcc/9.3.1-2020q2-windows/bin/../lib/gcc/arm-none-eabi/9.3.1/../../../../arm-none-eabi/lib/thumb/v7-m/nofp\libc.a(lib_a-locale.o)
 .text._setlocale_r
                0x00000000       0x40 c:/users/roxanne/desktop/programming/adkit/tools/arm-none-eabi-gcc/9.3.1-2020q2-windows/bin/../lib/gcc/arm-none-eabi/9.3.1/../../../../arm-none-eabi/lib/thumb/v7-m/nofp\libc.a(lib_a-locale.o)
 .text.setlocale
                0x00000000       0x10 c:/users/roxanne/desktop/programming/adkit/tools/arm-none-eabi-gcc/9.3.1-2020q2-windows/bin/../lib/gcc/arm-none-eabi/9.3.1/../../../../arm-none-eabi/lib/thumb/v7-m/nofp\libc.a(lib_a-locale.o)
 .bss._PathLocale
                0x00000000        0x4 c:/users/roxanne/desktop/programming/adkit/tools/arm-none-eabi-gcc/9.3.1-2020q2-windows/bin/../lib/gcc/arm-none-eabi/9.3.1/../../../../arm-none-eabi/lib/thumb/v7-m/nofp\libc.a(lib_a-locale.o)
 .text          0x00000000        0x0 c:/users/roxanne/desktop/programming/adkit/tools/arm-none-eabi-gcc/9.3.1-2020q2-windows/bin/../lib/gcc/arm-none-eabi/9.3.1/../../../../arm-none-eabi/lib/thumb/v7-m/nofp\libc.a(lib_a-localeconv.o)
 .data          0x00000000        0x0 c:/users/roxanne/desktop/programming/adkit/tools/arm-none-eabi-gcc/9.3.1-2020q2-windows/bin/../lib/gcc/arm-none-eabi/9.3.1/../../../../arm-none-eabi/lib/thumb/v7-m/nofp\libc.a(lib_a-localeconv.o)
 .bss           0x00000000        0x0 c:/users/roxanne/desktop/programming/adkit/tools/arm-none-eabi-gcc/9.3.1-2020q2-windows/bin/../lib/gcc/arm-none-eabi/9.3.1/../../../../arm-none-eabi/lib/thumb/v7-m/nofp\libc.a(lib_a-localeconv.o)
 .text.__localeconv_l
                0x00000000        0x4 c:/users/roxanne/desktop/programming/adkit/tools/arm-none-eabi-gcc/9.3.1-2020q2-windows/bin/../lib/gcc/arm-none-eabi/9.3.1/../../../../arm-none-eabi/lib/thumb/v7-m/nofp\libc.a(lib_a-localeconv.o)
 .text.localeconv
                0x00000000        0x8 c:/users/roxanne/desktop/programming/adkit/tools/arm-none-eabi-gcc/9.3.1-2020q2-windows/bin/../lib/gcc/arm-none-eabi/9.3.1/../../../../arm-none-eabi/lib/thumb/v7-m/nofp\libc.a(lib_a-localeconv.o)
 .text          0x00000000        0x0 c:/users/roxanne/desktop/programming/adkit/tools/arm-none-eabi-gcc/9.3.1-2020q2-windows/bin/../lib/gcc/arm-none-eabi/9.3.1/../../../../arm-none-eabi/lib/thumb/v7-m/nofp\libc.a(lib_a-lock.o)
 .data          0x00000000        0x0 c:/users/roxanne/desktop/programming/adkit/tools/arm-none-eabi-gcc/9.3.1-2020q2-windows/bin/../lib/gcc/arm-none-eabi/9.3.1/../../../../arm-none-eabi/lib/thumb/v7-m/nofp\libc.a(lib_a-lock.o)
 .bss           0x00000000        0x0 c:/users/roxanne/desktop/programming/adkit/tools/arm-none-eabi-gcc/9.3.1-2020q2-windows/bin/../lib/gcc/arm-none-eabi/9.3.1/../../../../arm-none-eabi/lib/thumb/v7-m/nofp\libc.a(lib_a-lock.o)
 .text.__retarget_lock_init
                0x00000000        0x4 c:/users/roxanne/desktop/programming/adkit/tools/arm-none-eabi-gcc/9.3.1-2020q2-windows/bin/../lib/gcc/arm-none-eabi/9.3.1/../../../../arm-none-eabi/lib/thumb/v7-m/nofp\libc.a(lib_a-lock.o)
 .text.__retarget_lock_close
                0x00000000        0x4 c:/users/roxanne/desktop/programming/adkit/tools/arm-none-eabi-gcc/9.3.1-2020q2-windows/bin/../lib/gcc/arm-none-eabi/9.3.1/../../../../arm-none-eabi/lib/thumb/v7-m/nofp\libc.a(lib_a-lock.o)
 .text.__retarget_lock_acquire
                0x00000000        0x4 c:/users/roxanne/desktop/programming/adkit/tools/arm-none-eabi-gcc/9.3.1-2020q2-windows/bin/../lib/gcc/arm-none-eabi/9.3.1/../../../../arm-none-eabi/lib/thumb/v7-m/nofp\libc.a(lib_a-lock.o)
 .text.__retarget_lock_try_acquire
                0x00000000        0x4 c:/users/roxanne/desktop/programming/adkit/tools/arm-none-eabi-gcc/9.3.1-2020q2-windows/bin/../lib/gcc/arm-none-eabi/9.3.1/../../../../arm-none-eabi/lib/thumb/v7-m/nofp\libc.a(lib_a-lock.o)
 .text.__retarget_lock_try_acquire_recursive
                0x00000000        0x4 c:/users/roxanne/desktop/programming/adkit/tools/arm-none-eabi-gcc/9.3.1-2020q2-windows/bin/../lib/gcc/arm-none-eabi/9.3.1/../../../../arm-none-eabi/lib/thumb/v7-m/nofp\libc.a(lib_a-lock.o)
 .text.__retarget_lock_release
                0x00000000        0x4 c:/users/roxanne/desktop/programming/adkit/tools/arm-none-eabi-gcc/9.3.1-2020q2-windows/bin/../lib/gcc/arm-none-eabi/9.3.1/../../../../arm-none-eabi/lib/thumb/v7-m/nofp\libc.a(lib_a-lock.o)
 .text          0x00000000        0x0 c:/users/roxanne/desktop/programming/adkit/tools/arm-none-eabi-gcc/9.3.1-2020q2-windows/bin/../lib/gcc/arm-none-eabi/9.3.1/../../../../arm-none-eabi/lib/thumb/v7-m/nofp\libc.a(lib_a-makebuf.o)
 .data          0x00000000        0x0 c:/users/roxanne/desktop/programming/adkit/tools/arm-none-eabi-gcc/9.3.1-2020q2-windows/bin/../lib/gcc/arm-none-eabi/9.3.1/../../../../arm-none-eabi/lib/thumb/v7-m/nofp\libc.a(lib_a-makebuf.o)
 .bss           0x00000000        0x0 c:/users/roxanne/desktop/programming/adkit/tools/arm-none-eabi-gcc/9.3.1-2020q2-windows/bin/../lib/gcc/arm-none-eabi/9.3.1/../../../../arm-none-eabi/lib/thumb/v7-m/nofp\libc.a(lib_a-makebuf.o)
 .text          0x00000000        0x0 c:/users/roxanne/desktop/programming/adkit/tools/arm-none-eabi-gcc/9.3.1-2020q2-windows/bin/../lib/gcc/arm-none-eabi/9.3.1/../../../../arm-none-eabi/lib/thumb/v7-m/nofp\libc.a(lib_a-mallocr.o)
 .data          0x00000000        0x0 c:/users/roxanne/desktop/programming/adkit/tools/arm-none-eabi-gcc/9.3.1-2020q2-windows/bin/../lib/gcc/arm-none-eabi/9.3.1/../../../../arm-none-eabi/lib/thumb/v7-m/nofp\libc.a(lib_a-mallocr.o)
 .bss           0x00000000        0x0 c:/users/roxanne/desktop/programming/adkit/tools/arm-none-eabi-gcc/9.3.1-2020q2-windows/bin/../lib/gcc/arm-none-eabi/9.3.1/../../../../arm-none-eabi/lib/thumb/v7-m/nofp\libc.a(lib_a-mallocr.o)
 .text          0x00000000        0x0 c:/users/roxanne/desktop/programming/adkit/tools/arm-none-eabi-gcc/9.3.1-2020q2-windows/bin/../lib/gcc/arm-none-eabi/9.3.1/../../../../arm-none-eabi/lib/thumb/v7-m/nofp\libc.a(lib_a-mbtowc_r.o)
 .data          0x00000000        0x0 c:/users/roxanne/desktop/programming/adkit/tools/arm-none-eabi-gcc/9.3.1-2020q2-windows/bin/../lib/gcc/arm-none-eabi/9.3.1/../../../../arm-none-eabi/lib/thumb/v7-m/nofp\libc.a(lib_a-mbtowc_r.o)
 .bss           0x00000000        0x0 c:/users/roxanne/desktop/programming/adkit/tools/arm-none-eabi-gcc/9.3.1-2020q2-windows/bin/../lib/gcc/arm-none-eabi/9.3.1/../../../../arm-none-eabi/lib/thumb/v7-m/nofp\libc.a(lib_a-mbtowc_r.o)
 .text._mbtowc_r
                0x00000000       0x14 c:/users/roxanne/desktop/programming/adkit/tools/arm-none-eabi-gcc/9.3.1-2020q2-windows/bin/../lib/gcc/arm-none-eabi/9.3.1/../../../../arm-none-eabi/lib/thumb/v7-m/nofp\libc.a(lib_a-mbtowc_r.o)
 .text          0x00000000        0x0 c:/users/roxanne/desktop/programming/adkit/tools/arm-none-eabi-gcc/9.3.1-2020q2-windows/bin/../lib/gcc/arm-none-eabi/9.3.1/../../../../arm-none-eabi/lib/thumb/v7-m/nofp\libc.a(lib_a-memchr-stub.o)
 .data          0x00000000        0x0 c:/users/roxanne/desktop/programming/adkit/tools/arm-none-eabi-gcc/9.3.1-2020q2-windows/bin/../lib/gcc/arm-none-eabi/9.3.1/../../../../arm-none-eabi/lib/thumb/v7-m/nofp\libc.a(lib_a-memchr-stub.o)
 .bss           0x00000000        0x0 c:/users/roxanne/desktop/programming/adkit/tools/arm-none-eabi-gcc/9.3.1-2020q2-windows/bin/../lib/gcc/arm-none-eabi/9.3.1/../../../../arm-none-eabi/lib/thumb/v7-m/nofp\libc.a(lib_a-memchr-stub.o)
 .text          0x00000000        0x0 c:/users/roxanne/desktop/programming/adkit/tools/arm-none-eabi-gcc/9.3.1-2020q2-windows/bin/../lib/gcc/arm-none-eabi/9.3.1/../../../../arm-none-eabi/lib/thumb/v7-m/nofp\libc.a(lib_a-memmove.o)
 .data          0x00000000        0x0 c:/users/roxanne/desktop/programming/adkit/tools/arm-none-eabi-gcc/9.3.1-2020q2-windows/bin/../lib/gcc/arm-none-eabi/9.3.1/../../../../arm-none-eabi/lib/thumb/v7-m/nofp\libc.a(lib_a-memmove.o)
 .bss           0x00000000        0x0 c:/users/roxanne/desktop/programming/adkit/tools/arm-none-eabi-gcc/9.3.1-2020q2-windows/bin/../lib/gcc/arm-none-eabi/9.3.1/../../../../arm-none-eabi/lib/thumb/v7-m/nofp\libc.a(lib_a-memmove.o)
 .text          0x00000000        0x0 c:/users/roxanne/desktop/programming/adkit/tools/arm-none-eabi-gcc/9.3.1-2020q2-windows/bin/../lib/gcc/arm-none-eabi/9.3.1/../../../../arm-none-eabi/lib/thumb/v7-m/nofp\libc.a(lib_a-mlock.o)
 .data          0x00000000        0x0 c:/users/roxanne/desktop/programming/adkit/tools/arm-none-eabi-gcc/9.3.1-2020q2-windows/bin/../lib/gcc/arm-none-eabi/9.3.1/../../../../arm-none-eabi/lib/thumb/v7-m/nofp\libc.a(lib_a-mlock.o)
 .bss           0x00000000        0x0 c:/users/roxanne/desktop/programming/adkit/tools/arm-none-eabi-gcc/9.3.1-2020q2-windows/bin/../lib/gcc/arm-none-eabi/9.3.1/../../../../arm-none-eabi/lib/thumb/v7-m/nofp\libc.a(lib_a-mlock.o)
 .text          0x00000000        0x0 c:/users/roxanne/desktop/programming/adkit/tools/arm-none-eabi-gcc/9.3.1-2020q2-windows/bin/../lib/gcc/arm-none-eabi/9.3.1/../../../../arm-none-eabi/lib/thumb/v7-m/nofp\libc.a(lib_a-mprec.o)
 .data          0x00000000        0x0 c:/users/roxanne/desktop/programming/adkit/tools/arm-none-eabi-gcc/9.3.1-2020q2-windows/bin/../lib/gcc/arm-none-eabi/9.3.1/../../../../arm-none-eabi/lib/thumb/v7-m/nofp\libc.a(lib_a-mprec.o)
 .bss           0x00000000        0x0 c:/users/roxanne/desktop/programming/adkit/tools/arm-none-eabi-gcc/9.3.1-2020q2-windows/bin/../lib/gcc/arm-none-eabi/9.3.1/../../../../arm-none-eabi/lib/thumb/v7-m/nofp\libc.a(lib_a-mprec.o)
 .text.__s2b    0x00000000       0xb4 c:/users/roxanne/desktop/programming/adkit/tools/arm-none-eabi-gcc/9.3.1-2020q2-windows/bin/../lib/gcc/arm-none-eabi/9.3.1/../../../../arm-none-eabi/lib/thumb/v7-m/nofp\libc.a(lib_a-mprec.o)
 .text.__ulp    0x00000000       0x44 c:/users/roxanne/desktop/programming/adkit/tools/arm-none-eabi-gcc/9.3.1-2020q2-windows/bin/../lib/gcc/arm-none-eabi/9.3.1/../../../../arm-none-eabi/lib/thumb/v7-m/nofp\libc.a(lib_a-mprec.o)
 .text.__b2d    0x00000000       0xd4 c:/users/roxanne/desktop/programming/adkit/tools/arm-none-eabi-gcc/9.3.1-2020q2-windows/bin/../lib/gcc/arm-none-eabi/9.3.1/../../../../arm-none-eabi/lib/thumb/v7-m/nofp\libc.a(lib_a-mprec.o)
 .text.__ratio  0x00000000       0x5c c:/users/roxanne/desktop/programming/adkit/tools/arm-none-eabi-gcc/9.3.1-2020q2-windows/bin/../lib/gcc/arm-none-eabi/9.3.1/../../../../arm-none-eabi/lib/thumb/v7-m/nofp\libc.a(lib_a-mprec.o)
 .text._mprec_log10
                0x00000000       0x38 c:/users/roxanne/desktop/programming/adkit/tools/arm-none-eabi-gcc/9.3.1-2020q2-windows/bin/../lib/gcc/arm-none-eabi/9.3.1/../../../../arm-none-eabi/lib/thumb/v7-m/nofp\libc.a(lib_a-mprec.o)
 .text.__copybits
                0x00000000       0x48 c:/users/roxanne/desktop/programming/adkit/tools/arm-none-eabi-gcc/9.3.1-2020q2-windows/bin/../lib/gcc/arm-none-eabi/9.3.1/../../../../arm-none-eabi/lib/thumb/v7-m/nofp\libc.a(lib_a-mprec.o)
 .text.__any_on
                0x00000000       0x60 c:/users/roxanne/desktop/programming/adkit/tools/arm-none-eabi-gcc/9.3.1-2020q2-windows/bin/../lib/gcc/arm-none-eabi/9.3.1/../../../../arm-none-eabi/lib/thumb/v7-m/nofp\libc.a(lib_a-mprec.o)
 .rodata.__mprec_tinytens
                0x00000000       0x28 c:/users/roxanne/desktop/programming/adkit/tools/arm-none-eabi-gcc/9.3.1-2020q2-windows/bin/../lib/gcc/arm-none-eabi/9.3.1/../../../../arm-none-eabi/lib/thumb/v7-m/nofp\libc.a(lib_a-mprec.o)
 .text          0x00000000        0x0 c:/users/roxanne/desktop/programming/adkit/tools/arm-none-eabi-gcc/9.3.1-2020q2-windows/bin/../lib/gcc/arm-none-eabi/9.3.1/../../../../arm-none-eabi/lib/thumb/v7-m/nofp\libc.a(lib_a-putc.o)
 .data          0x00000000        0x0 c:/users/roxanne/desktop/programming/adkit/tools/arm-none-eabi-gcc/9.3.1-2020q2-windows/bin/../lib/gcc/arm-none-eabi/9.3.1/../../../../arm-none-eabi/lib/thumb/v7-m/nofp\libc.a(lib_a-putc.o)
 .bss           0x00000000        0x0 c:/users/roxanne/desktop/programming/adkit/tools/arm-none-eabi-gcc/9.3.1-2020q2-windows/bin/../lib/gcc/arm-none-eabi/9.3.1/../../../../arm-none-eabi/lib/thumb/v7-m/nofp\libc.a(lib_a-putc.o)
 .text.putc     0x00000000       0x7c c:/users/roxanne/desktop/programming/adkit/tools/arm-none-eabi-gcc/9.3.1-2020q2-windows/bin/../lib/gcc/arm-none-eabi/9.3.1/../../../../arm-none-eabi/lib/thumb/v7-m/nofp\libc.a(lib_a-putc.o)
 .text          0x00000000        0x0 c:/users/roxanne/desktop/programming/adkit/tools/arm-none-eabi-gcc/9.3.1-2020q2-windows/bin/../lib/gcc/arm-none-eabi/9.3.1/../../../../arm-none-eabi/lib/thumb/v7-m/nofp\libc.a(lib_a-reallocr.o)
 .data          0x00000000        0x0 c:/users/roxanne/desktop/programming/adkit/tools/arm-none-eabi-gcc/9.3.1-2020q2-windows/bin/../lib/gcc/arm-none-eabi/9.3.1/../../../../arm-none-eabi/lib/thumb/v7-m/nofp\libc.a(lib_a-reallocr.o)
 .bss           0x00000000        0x0 c:/users/roxanne/desktop/programming/adkit/tools/arm-none-eabi-gcc/9.3.1-2020q2-windows/bin/../lib/gcc/arm-none-eabi/9.3.1/../../../../arm-none-eabi/lib/thumb/v7-m/nofp\libc.a(lib_a-reallocr.o)
 .text          0x00000000        0x0 c:/users/roxanne/desktop/programming/adkit/tools/arm-none-eabi-gcc/9.3.1-2020q2-windows/bin/../lib/gcc/arm-none-eabi/9.3.1/../../../../arm-none-eabi/lib/thumb/v7-m/nofp\libc.a(lib_a-reent.o)
 .data          0x00000000        0x0 c:/users/roxanne/desktop/programming/adkit/tools/arm-none-eabi-gcc/9.3.1-2020q2-windows/bin/../lib/gcc/arm-none-eabi/9.3.1/../../../../arm-none-eabi/lib/thumb/v7-m/nofp\libc.a(lib_a-reent.o)
 .bss           0x00000000        0x0 c:/users/roxanne/desktop/programming/adkit/tools/arm-none-eabi-gcc/9.3.1-2020q2-windows/bin/../lib/gcc/arm-none-eabi/9.3.1/../../../../arm-none-eabi/lib/thumb/v7-m/nofp\libc.a(lib_a-reent.o)
 .text.cleanup_glue
                0x00000000       0x1c c:/users/roxanne/desktop/programming/adkit/tools/arm-none-eabi-gcc/9.3.1-2020q2-windows/bin/../lib/gcc/arm-none-eabi/9.3.1/../../../../arm-none-eabi/lib/thumb/v7-m/nofp\libc.a(lib_a-reent.o)
 .text._reclaim_reent
                0x00000000       0x84 c:/users/roxanne/desktop/programming/adkit/tools/arm-none-eabi-gcc/9.3.1-2020q2-windows/bin/../lib/gcc/arm-none-eabi/9.3.1/../../../../arm-none-eabi/lib/thumb/v7-m/nofp\libc.a(lib_a-reent.o)
 .text          0x00000000        0x0 c:/users/roxanne/desktop/programming/adkit/tools/arm-none-eabi-gcc/9.3.1-2020q2-windows/bin/../lib/gcc/arm-none-eabi/9.3.1/../../../../arm-none-eabi/lib/thumb/v7-m/nofp\libc.a(lib_a-s_frexp.o)
 .data          0x00000000        0x0 c:/users/roxanne/desktop/programming/adkit/tools/arm-none-eabi-gcc/9.3.1-2020q2-windows/bin/../lib/gcc/arm-none-eabi/9.3.1/../../../../arm-none-eabi/lib/thumb/v7-m/nofp\libc.a(lib_a-s_frexp.o)
 .bss           0x00000000        0x0 c:/users/roxanne/desktop/programming/adkit/tools/arm-none-eabi-gcc/9.3.1-2020q2-windows/bin/../lib/gcc/arm-none-eabi/9.3.1/../../../../arm-none-eabi/lib/thumb/v7-m/nofp\libc.a(lib_a-s_frexp.o)
 .text          0x00000000        0x0 c:/users/roxanne/desktop/programming/adkit/tools/arm-none-eabi-gcc/9.3.1-2020q2-windows/bin/../lib/gcc/arm-none-eabi/9.3.1/../../../../arm-none-eabi/lib/thumb/v7-m/nofp\libc.a(lib_a-sbrkr.o)
 .data          0x00000000        0x0 c:/users/roxanne/desktop/programming/adkit/tools/arm-none-eabi-gcc/9.3.1-2020q2-windows/bin/../lib/gcc/arm-none-eabi/9.3.1/../../../../arm-none-eabi/lib/thumb/v7-m/nofp\libc.a(lib_a-sbrkr.o)
 .bss           0x00000000        0x0 c:/users/roxanne/desktop/programming/adkit/tools/arm-none-eabi-gcc/9.3.1-2020q2-windows/bin/../lib/gcc/arm-none-eabi/9.3.1/../../../../arm-none-eabi/lib/thumb/v7-m/nofp\libc.a(lib_a-sbrkr.o)
 .text          0x00000000        0x0 c:/users/roxanne/desktop/programming/adkit/tools/arm-none-eabi-gcc/9.3.1-2020q2-windows/bin/../lib/gcc/arm-none-eabi/9.3.1/../../../../arm-none-eabi/lib/thumb/v7-m/nofp\libc.a(lib_a-stdio.o)
 .data          0x00000000        0x0 c:/users/roxanne/desktop/programming/adkit/tools/arm-none-eabi-gcc/9.3.1-2020q2-windows/bin/../lib/gcc/arm-none-eabi/9.3.1/../../../../arm-none-eabi/lib/thumb/v7-m/nofp\libc.a(lib_a-stdio.o)
 .bss           0x00000000        0x0 c:/users/roxanne/desktop/programming/adkit/tools/arm-none-eabi-gcc/9.3.1-2020q2-windows/bin/../lib/gcc/arm-none-eabi/9.3.1/../../../../arm-none-eabi/lib/thumb/v7-m/nofp\libc.a(lib_a-stdio.o)
 .text.__seofread
                0x00000000        0x4 c:/users/roxanne/desktop/programming/adkit/tools/arm-none-eabi-gcc/9.3.1-2020q2-windows/bin/../lib/gcc/arm-none-eabi/9.3.1/../../../../arm-none-eabi/lib/thumb/v7-m/nofp\libc.a(lib_a-stdio.o)
 .text          0x00000000      0x1bc c:/users/roxanne/desktop/programming/adkit/tools/arm-none-eabi-gcc/9.3.1-2020q2-windows/bin/../lib/gcc/arm-none-eabi/9.3.1/../../../../arm-none-eabi/lib/thumb/v7-m/nofp\libc.a(lib_a-strcmp.o)
 .data          0x00000000        0x0 c:/users/roxanne/desktop/programming/adkit/tools/arm-none-eabi-gcc/9.3.1-2020q2-windows/bin/../lib/gcc/arm-none-eabi/9.3.1/../../../../arm-none-eabi/lib/thumb/v7-m/nofp\libc.a(lib_a-strcmp.o)
 .bss           0x00000000        0x0 c:/users/roxanne/desktop/programming/adkit/tools/arm-none-eabi-gcc/9.3.1-2020q2-windows/bin/../lib/gcc/arm-none-eabi/9.3.1/../../../../arm-none-eabi/lib/thumb/v7-m/nofp\libc.a(lib_a-strcmp.o)
 .debug_frame   0x00000000       0x34 c:/users/roxanne/desktop/programming/adkit/tools/arm-none-eabi-gcc/9.3.1-2020q2-windows/bin/../lib/gcc/arm-none-eabi/9.3.1/../../../../arm-none-eabi/lib/thumb/v7-m/nofp\libc.a(lib_a-strcmp.o)
 .ARM.attributes
                0x00000000       0x1b c:/users/roxanne/desktop/programming/adkit/tools/arm-none-eabi-gcc/9.3.1-2020q2-windows/bin/../lib/gcc/arm-none-eabi/9.3.1/../../../../arm-none-eabi/lib/thumb/v7-m/nofp\libc.a(lib_a-strcmp.o)
 .text          0x00000000        0x0 c:/users/roxanne/desktop/programming/adkit/tools/arm-none-eabi-gcc/9.3.1-2020q2-windows/bin/../lib/gcc/arm-none-eabi/9.3.1/../../../../arm-none-eabi/lib/thumb/v7-m/nofp\libc.a(lib_a-strncpy.o)
 .data          0x00000000        0x0 c:/users/roxanne/desktop/programming/adkit/tools/arm-none-eabi-gcc/9.3.1-2020q2-windows/bin/../lib/gcc/arm-none-eabi/9.3.1/../../../../arm-none-eabi/lib/thumb/v7-m/nofp\libc.a(lib_a-strncpy.o)
 .bss           0x00000000        0x0 c:/users/roxanne/desktop/programming/adkit/tools/arm-none-eabi-gcc/9.3.1-2020q2-windows/bin/../lib/gcc/arm-none-eabi/9.3.1/../../../../arm-none-eabi/lib/thumb/v7-m/nofp\libc.a(lib_a-strncpy.o)
 .text          0x00000000        0x0 c:/users/roxanne/desktop/programming/adkit/tools/arm-none-eabi-gcc/9.3.1-2020q2-windows/bin/../lib/gcc/arm-none-eabi/9.3.1/../../../../arm-none-eabi/lib/thumb/v7-m/nofp\libc.a(lib_a-wbuf.o)
 .data          0x00000000        0x0 c:/users/roxanne/desktop/programming/adkit/tools/arm-none-eabi-gcc/9.3.1-2020q2-windows/bin/../lib/gcc/arm-none-eabi/9.3.1/../../../../arm-none-eabi/lib/thumb/v7-m/nofp\libc.a(lib_a-wbuf.o)
 .bss           0x00000000        0x0 c:/users/roxanne/desktop/programming/adkit/tools/arm-none-eabi-gcc/9.3.1-2020q2-windows/bin/../lib/gcc/arm-none-eabi/9.3.1/../../../../arm-none-eabi/lib/thumb/v7-m/nofp\libc.a(lib_a-wbuf.o)
 .text.__swbuf  0x00000000       0x10 c:/users/roxanne/desktop/programming/adkit/tools/arm-none-eabi-gcc/9.3.1-2020q2-windows/bin/../lib/gcc/arm-none-eabi/9.3.1/../../../../arm-none-eabi/lib/thumb/v7-m/nofp\libc.a(lib_a-wbuf.o)
 .text          0x00000000        0x0 c:/users/roxanne/desktop/programming/adkit/tools/arm-none-eabi-gcc/9.3.1-2020q2-windows/bin/../lib/gcc/arm-none-eabi/9.3.1/../../../../arm-none-eabi/lib/thumb/v7-m/nofp\libc.a(lib_a-wcrtomb.o)
 .data          0x00000000        0x0 c:/users/roxanne/desktop/programming/adkit/tools/arm-none-eabi-gcc/9.3.1-2020q2-windows/bin/../lib/gcc/arm-none-eabi/9.3.1/../../../../arm-none-eabi/lib/thumb/v7-m/nofp\libc.a(lib_a-wcrtomb.o)
 .bss           0x00000000        0x0 c:/users/roxanne/desktop/programming/adkit/tools/arm-none-eabi-gcc/9.3.1-2020q2-windows/bin/../lib/gcc/arm-none-eabi/9.3.1/../../../../arm-none-eabi/lib/thumb/v7-m/nofp\libc.a(lib_a-wcrtomb.o)
 .text.wcrtomb  0x00000000       0x4c c:/users/roxanne/desktop/programming/adkit/tools/arm-none-eabi-gcc/9.3.1-2020q2-windows/bin/../lib/gcc/arm-none-eabi/9.3.1/../../../../arm-none-eabi/lib/thumb/v7-m/nofp\libc.a(lib_a-wcrtomb.o)
 .text          0x00000000        0x0 c:/users/roxanne/desktop/programming/adkit/tools/arm-none-eabi-gcc/9.3.1-2020q2-windows/bin/../lib/gcc/arm-none-eabi/9.3.1/../../../../arm-none-eabi/lib/thumb/v7-m/nofp\libc.a(lib_a-wctomb_r.o)
 .data          0x00000000        0x0 c:/users/roxanne/desktop/programming/adkit/tools/arm-none-eabi-gcc/9.3.1-2020q2-windows/bin/../lib/gcc/arm-none-eabi/9.3.1/../../../../arm-none-eabi/lib/thumb/v7-m/nofp\libc.a(lib_a-wctomb_r.o)
 .bss           0x00000000        0x0 c:/users/roxanne/desktop/programming/adkit/tools/arm-none-eabi-gcc/9.3.1-2020q2-windows/bin/../lib/gcc/arm-none-eabi/9.3.1/../../../../arm-none-eabi/lib/thumb/v7-m/nofp\libc.a(lib_a-wctomb_r.o)
 .text._wctomb_r
                0x00000000       0x14 c:/users/roxanne/desktop/programming/adkit/tools/arm-none-eabi-gcc/9.3.1-2020q2-windows/bin/../lib/gcc/arm-none-eabi/9.3.1/../../../../arm-none-eabi/lib/thumb/v7-m/nofp\libc.a(lib_a-wctomb_r.o)
 .text          0x00000000        0x0 c:/users/roxanne/desktop/programming/adkit/tools/arm-none-eabi-gcc/9.3.1-2020q2-windows/bin/../lib/gcc/arm-none-eabi/9.3.1/../../../../arm-none-eabi/lib/thumb/v7-m/nofp\libc.a(lib_a-writer.o)
 .data          0x00000000        0x0 c:/users/roxanne/desktop/programming/adkit/tools/arm-none-eabi-gcc/9.3.1-2020q2-windows/bin/../lib/gcc/arm-none-eabi/9.3.1/../../../../arm-none-eabi/lib/thumb/v7-m/nofp\libc.a(lib_a-writer.o)
 .bss           0x00000000        0x0 c:/users/roxanne/desktop/programming/adkit/tools/arm-none-eabi-gcc/9.3.1-2020q2-windows/bin/../lib/gcc/arm-none-eabi/9.3.1/../../../../arm-none-eabi/lib/thumb/v7-m/nofp\libc.a(lib_a-writer.o)
 .text          0x00000000        0x0 c:/users/roxanne/desktop/programming/adkit/tools/arm-none-eabi-gcc/9.3.1-2020q2-windows/bin/../lib/gcc/arm-none-eabi/9.3.1/../../../../arm-none-eabi/lib/thumb/v7-m/nofp\libc.a(lib_a-__atexit.o)
 .data          0x00000000        0x0 c:/users/roxanne/desktop/programming/adkit/tools/arm-none-eabi-gcc/9.3.1-2020q2-windows/bin/../lib/gcc/arm-none-eabi/9.3.1/../../../../arm-none-eabi/lib/thumb/v7-m/nofp\libc.a(lib_a-__atexit.o)
 .bss           0x00000000        0x0 c:/users/roxanne/desktop/programming/adkit/tools/arm-none-eabi-gcc/9.3.1-2020q2-windows/bin/../lib/gcc/arm-none-eabi/9.3.1/../../../../arm-none-eabi/lib/thumb/v7-m/nofp\libc.a(lib_a-__atexit.o)
 .text          0x00000000        0x0 c:/users/roxanne/desktop/programming/adkit/tools/arm-none-eabi-gcc/9.3.1-2020q2-windows/bin/../lib/gcc/arm-none-eabi/9.3.1/../../../../arm-none-eabi/lib/thumb/v7-m/nofp\libc.a(lib_a-callocr.o)
 .data          0x00000000        0x0 c:/users/roxanne/desktop/programming/adkit/tools/arm-none-eabi-gcc/9.3.1-2020q2-windows/bin/../lib/gcc/arm-none-eabi/9.3.1/../../../../arm-none-eabi/lib/thumb/v7-m/nofp\libc.a(lib_a-callocr.o)
 .bss           0x00000000        0x0 c:/users/roxanne/desktop/programming/adkit/tools/arm-none-eabi-gcc/9.3.1-2020q2-windows/bin/../lib/gcc/arm-none-eabi/9.3.1/../../../../arm-none-eabi/lib/thumb/v7-m/nofp\libc.a(lib_a-callocr.o)
 .text          0x00000000        0x0 c:/users/roxanne/desktop/programming/adkit/tools/arm-none-eabi-gcc/9.3.1-2020q2-windows/bin/../lib/gcc/arm-none-eabi/9.3.1/../../../../arm-none-eabi/lib/thumb/v7-m/nofp\libc.a(lib_a-closer.o)
 .data          0x00000000        0x0 c:/users/roxanne/desktop/programming/adkit/tools/arm-none-eabi-gcc/9.3.1-2020q2-windows/bin/../lib/gcc/arm-none-eabi/9.3.1/../../../../arm-none-eabi/lib/thumb/v7-m/nofp\libc.a(lib_a-closer.o)
 .bss           0x00000000        0x0 c:/users/roxanne/desktop/programming/adkit/tools/arm-none-eabi-gcc/9.3.1-2020q2-windows/bin/../lib/gcc/arm-none-eabi/9.3.1/../../../../arm-none-eabi/lib/thumb/v7-m/nofp\libc.a(lib_a-closer.o)
 .text          0x00000000        0x0 c:/users/roxanne/desktop/programming/adkit/tools/arm-none-eabi-gcc/9.3.1-2020q2-windows/bin/../lib/gcc/arm-none-eabi/9.3.1/../../../../arm-none-eabi/lib/thumb/v7-m/nofp\libc.a(lib_a-ctype_.o)
 .data          0x00000000        0x0 c:/users/roxanne/desktop/programming/adkit/tools/arm-none-eabi-gcc/9.3.1-2020q2-windows/bin/../lib/gcc/arm-none-eabi/9.3.1/../../../../arm-none-eabi/lib/thumb/v7-m/nofp\libc.a(lib_a-ctype_.o)
 .bss           0x00000000        0x0 c:/users/roxanne/desktop/programming/adkit/tools/arm-none-eabi-gcc/9.3.1-2020q2-windows/bin/../lib/gcc/arm-none-eabi/9.3.1/../../../../arm-none-eabi/lib/thumb/v7-m/nofp\libc.a(lib_a-ctype_.o)
 .text          0x00000000        0x0 c:/users/roxanne/desktop/programming/adkit/tools/arm-none-eabi-gcc/9.3.1-2020q2-windows/bin/../lib/gcc/arm-none-eabi/9.3.1/../../../../arm-none-eabi/lib/thumb/v7-m/nofp\libc.a(lib_a-fclose.o)
 .data          0x00000000        0x0 c:/users/roxanne/desktop/programming/adkit/tools/arm-none-eabi-gcc/9.3.1-2020q2-windows/bin/../lib/gcc/arm-none-eabi/9.3.1/../../../../arm-none-eabi/lib/thumb/v7-m/nofp\libc.a(lib_a-fclose.o)
 .bss           0x00000000        0x0 c:/users/roxanne/desktop/programming/adkit/tools/arm-none-eabi-gcc/9.3.1-2020q2-windows/bin/../lib/gcc/arm-none-eabi/9.3.1/../../../../arm-none-eabi/lib/thumb/v7-m/nofp\libc.a(lib_a-fclose.o)
 .text.fclose   0x00000000       0x10 c:/users/roxanne/desktop/programming/adkit/tools/arm-none-eabi-gcc/9.3.1-2020q2-windows/bin/../lib/gcc/arm-none-eabi/9.3.1/../../../../arm-none-eabi/lib/thumb/v7-m/nofp\libc.a(lib_a-fclose.o)
 .text          0x00000000        0x0 c:/users/roxanne/desktop/programming/adkit/tools/arm-none-eabi-gcc/9.3.1-2020q2-windows/bin/../lib/gcc/arm-none-eabi/9.3.1/../../../../arm-none-eabi/lib/thumb/v7-m/nofp\libc.a(lib_a-fstatr.o)
 .data          0x00000000        0x0 c:/users/roxanne/desktop/programming/adkit/tools/arm-none-eabi-gcc/9.3.1-2020q2-windows/bin/../lib/gcc/arm-none-eabi/9.3.1/../../../../arm-none-eabi/lib/thumb/v7-m/nofp\libc.a(lib_a-fstatr.o)
 .bss           0x00000000        0x0 c:/users/roxanne/desktop/programming/adkit/tools/arm-none-eabi-gcc/9.3.1-2020q2-windows/bin/../lib/gcc/arm-none-eabi/9.3.1/../../../../arm-none-eabi/lib/thumb/v7-m/nofp\libc.a(lib_a-fstatr.o)
 .text          0x00000000        0x0 c:/users/roxanne/desktop/programming/adkit/tools/arm-none-eabi-gcc/9.3.1-2020q2-windows/bin/../lib/gcc/arm-none-eabi/9.3.1/../../../../arm-none-eabi/lib/thumb/v7-m/nofp\libc.a(lib_a-isattyr.o)
 .data          0x00000000        0x0 c:/users/roxanne/desktop/programming/adkit/tools/arm-none-eabi-gcc/9.3.1-2020q2-windows/bin/../lib/gcc/arm-none-eabi/9.3.1/../../../../arm-none-eabi/lib/thumb/v7-m/nofp\libc.a(lib_a-isattyr.o)
 .bss           0x00000000        0x0 c:/users/roxanne/desktop/programming/adkit/tools/arm-none-eabi-gcc/9.3.1-2020q2-windows/bin/../lib/gcc/arm-none-eabi/9.3.1/../../../../arm-none-eabi/lib/thumb/v7-m/nofp\libc.a(lib_a-isattyr.o)
 .text          0x00000000        0x0 c:/users/roxanne/desktop/programming/adkit/tools/arm-none-eabi-gcc/9.3.1-2020q2-windows/bin/../lib/gcc/arm-none-eabi/9.3.1/../../../../arm-none-eabi/lib/thumb/v7-m/nofp\libc.a(lib_a-lseekr.o)
 .data          0x00000000        0x0 c:/users/roxanne/desktop/programming/adkit/tools/arm-none-eabi-gcc/9.3.1-2020q2-windows/bin/../lib/gcc/arm-none-eabi/9.3.1/../../../../arm-none-eabi/lib/thumb/v7-m/nofp\libc.a(lib_a-lseekr.o)
 .bss           0x00000000        0x0 c:/users/roxanne/desktop/programming/adkit/tools/arm-none-eabi-gcc/9.3.1-2020q2-windows/bin/../lib/gcc/arm-none-eabi/9.3.1/../../../../arm-none-eabi/lib/thumb/v7-m/nofp\libc.a(lib_a-lseekr.o)
 .text          0x00000000        0x0 c:/users/roxanne/desktop/programming/adkit/tools/arm-none-eabi-gcc/9.3.1-2020q2-windows/bin/../lib/gcc/arm-none-eabi/9.3.1/../../../../arm-none-eabi/lib/thumb/v7-m/nofp\libc.a(lib_a-readr.o)
 .data          0x00000000        0x0 c:/users/roxanne/desktop/programming/adkit/tools/arm-none-eabi-gcc/9.3.1-2020q2-windows/bin/../lib/gcc/arm-none-eabi/9.3.1/../../../../arm-none-eabi/lib/thumb/v7-m/nofp\libc.a(lib_a-readr.o)
 .bss           0x00000000        0x0 c:/users/roxanne/desktop/programming/adkit/tools/arm-none-eabi-gcc/9.3.1-2020q2-windows/bin/../lib/gcc/arm-none-eabi/9.3.1/../../../../arm-none-eabi/lib/thumb/v7-m/nofp\libc.a(lib_a-readr.o)
 .data          0x00000000        0x0 c:/users/roxanne/desktop/programming/adkit/tools/arm-none-eabi-gcc/9.3.1-2020q2-windows/bin/../lib/gcc/arm-none-eabi/9.3.1/thumb/v7-m/nofp\libgcc.a(_arm_fixdfsi.o)
 .bss           0x00000000        0x0 c:/users/roxanne/desktop/programming/adkit/tools/arm-none-eabi-gcc/9.3.1-2020q2-windows/bin/../lib/gcc/arm-none-eabi/9.3.1/thumb/v7-m/nofp\libgcc.a(_arm_fixdfsi.o)
 .data          0x00000000        0x0 c:/users/roxanne/desktop/programming/adkit/tools/arm-none-eabi-gcc/9.3.1-2020q2-windows/bin/../lib/gcc/arm-none-eabi/9.3.1/thumb/v7-m/nofp\libgcc.a(_aeabi_uldivmod.o)
 .bss           0x00000000        0x0 c:/users/roxanne/desktop/programming/adkit/tools/arm-none-eabi-gcc/9.3.1-2020q2-windows/bin/../lib/gcc/arm-none-eabi/9.3.1/thumb/v7-m/nofp\libgcc.a(_aeabi_uldivmod.o)
 .data          0x00000000        0x0 c:/users/roxanne/desktop/programming/adkit/tools/arm-none-eabi-gcc/9.3.1-2020q2-windows/bin/../lib/gcc/arm-none-eabi/9.3.1/thumb/v7-m/nofp\libgcc.a(_udivmoddi4.o)
 .bss           0x00000000        0x0 c:/users/roxanne/desktop/programming/adkit/tools/arm-none-eabi-gcc/9.3.1-2020q2-windows/bin/../lib/gcc/arm-none-eabi/9.3.1/thumb/v7-m/nofp\libgcc.a(_udivmoddi4.o)
 .ARM.extab     0x00000000        0x0 c:/users/roxanne/desktop/programming/adkit/tools/arm-none-eabi-gcc/9.3.1-2020q2-windows/bin/../lib/gcc/arm-none-eabi/9.3.1/thumb/v7-m/nofp\libgcc.a(_udivmoddi4.o)
 .data          0x00000000        0x0 c:/users/roxanne/desktop/programming/adkit/tools/arm-none-eabi-gcc/9.3.1-2020q2-windows/bin/../lib/gcc/arm-none-eabi/9.3.1/thumb/v7-m/nofp\libgcc.a(_dvmd_tls.o)
 .bss           0x00000000        0x0 c:/users/roxanne/desktop/programming/adkit/tools/arm-none-eabi-gcc/9.3.1-2020q2-windows/bin/../lib/gcc/arm-none-eabi/9.3.1/thumb/v7-m/nofp\libgcc.a(_dvmd_tls.o)
 .text          0x00000000        0x0 c:/users/roxanne/desktop/programming/adkit/tools/arm-none-eabi-gcc/9.3.1-2020q2-windows/bin/../lib/gcc/arm-none-eabi/9.3.1/thumb/v7-m/nofp/crtend.o
 .data          0x00000000        0x0 c:/users/roxanne/desktop/programming/adkit/tools/arm-none-eabi-gcc/9.3.1-2020q2-windows/bin/../lib/gcc/arm-none-eabi/9.3.1/thumb/v7-m/nofp/crtend.o
 .bss           0x00000000        0x0 c:/users/roxanne/desktop/programming/adkit/tools/arm-none-eabi-gcc/9.3.1-2020q2-windows/bin/../lib/gcc/arm-none-eabi/9.3.1/thumb/v7-m/nofp/crtend.o
 .eh_frame      0x00000000        0x4 c:/users/roxanne/desktop/programming/adkit/tools/arm-none-eabi-gcc/9.3.1-2020q2-windows/bin/../lib/gcc/arm-none-eabi/9.3.1/thumb/v7-m/nofp/crtend.o
 .ARM.attributes
                0x00000000       0x2d c:/users/roxanne/desktop/programming/adkit/tools/arm-none-eabi-gcc/9.3.1-2020q2-windows/bin/../lib/gcc/arm-none-eabi/9.3.1/thumb/v7-m/nofp/crtend.o
 .text          0x00000000        0x0 c:/users/roxanne/desktop/programming/adkit/tools/arm-none-eabi-gcc/9.3.1-2020q2-windows/bin/../lib/gcc/arm-none-eabi/9.3.1/thumb/v7-m/nofp/crtn.o
 .data          0x00000000        0x0 c:/users/roxanne/desktop/programming/adkit/tools/arm-none-eabi-gcc/9.3.1-2020q2-windows/bin/../lib/gcc/arm-none-eabi/9.3.1/thumb/v7-m/nofp/crtn.o
 .bss           0x00000000        0x0 c:/users/roxanne/desktop/programming/adkit/tools/arm-none-eabi-gcc/9.3.1-2020q2-windows/bin/../lib/gcc/arm-none-eabi/9.3.1/thumb/v7-m/nofp/crtn.o

Memory Configuration

Name             Origin             Length             Attributes
rom              0x00080000         0x00080000         xr
sram0            0x20000000         0x00010000         xrw
sram1            0x20080000         0x00008000         xrw
ram              0x20070000         0x00018000         xrw
*default*        0x00000000         0xffffffff

Linker script and memory map

LOAD c:/users/roxanne/desktop/programming/adkit/tools/arm-none-eabi-gcc/9.3.1-2020q2-windows/bin/../lib/gcc/arm-none-eabi/9.3.1/thumb/v7-m/nofp/crti.o
LOAD c:/users/roxanne/desktop/programming/adkit/tools/arm-none-eabi-gcc/9.3.1-2020q2-windows/bin/../lib/gcc/arm-none-eabi/9.3.1/thumb/v7-m/nofp/crtbegin.o
LOAD c:/users/roxanne/desktop/programming/adkit/tools/arm-none-eabi-gcc/9.3.1-2020q2-windows/bin/../lib/gcc/arm-none-eabi/9.3.1/../../../../arm-none-eabi/lib/thumb/v7-m/nofp/crt0.o
START GROUP
LOAD ../../lib/ArduinoCore-sam/out/sam.a
LOAD ../../lib/ArduinoCore-sam/variants/arduino_due_x/libsam_sam3x8e_gcc_rel.a
LOAD build/asciz.a
END GROUP
LOAD c:/users/roxanne/desktop/programming/adkit/tools/arm-none-eabi-gcc/9.3.1-2020q2-windows/bin/../lib/gcc/arm-none-eabi/9.3.1/../../../../arm-none-eabi/lib/thumb/v7-m/nofp\libm.a
LOAD c:/users/roxanne/desktop/programming/adkit/tools/arm-none-eabi-gcc/9.3.1-2020q2-windows/bin/../lib/gcc/arm-none-eabi/9.3.1/thumb/v7-m/nofp\libgcc.a
LOAD c:/users/roxanne/desktop/programming/adkit/tools/arm-none-eabi-gcc/9.3.1-2020q2-windows/bin/../lib/gcc/arm-none-eabi/9.3.1/../../../../arm-none-eabi/lib/thumb/v7-m/nofp\libsupc++.a
START GROUP
LOAD c:/users/roxanne/desktop/programming/adkit/tools/arm-none-eabi-gcc/9.3.1-2020q2-windows/bin/../lib/gcc/arm-none-eabi/9.3.1/thumb/v7-m/nofp\libgcc.a
LOAD c:/users/roxanne/desktop/programming/adkit/tools/arm-none-eabi-gcc/9.3.1-2020q2-windows/bin/../lib/gcc/arm-none-eabi/9.3.1/../../../../arm-none-eabi/lib/thumb/v7-m/nofp\libc.a
END GROUP
LOAD c:/users/roxanne/desktop/programming/adkit/tools/arm-none-eabi-gcc/9.3.1-2020q2-windows/bin/../lib/gcc/arm-none-eabi/9.3.1/thumb/v7-m/nofp/crtend.o
LOAD c:/users/roxanne/desktop/programming/adkit/tools/arm-none-eabi-gcc/9.3.1-2020q2-windows/bin/../lib/gcc/arm-none-eabi/9.3.1/thumb/v7-m/nofp/crtn.o

.text           0x00080000     0x97c0
                0x00080000                . = ALIGN (0x4)
                0x00080000                _sfixed = .
 *(.vectors .vectors.*)
 .vectors       0x00080000       0xf4 ../../lib/ArduinoCore-sam/variants/arduino_due_x/libsam_sam3x8e_gcc_rel.a(startup_sam3xa.o)
                0x00080000                exception_table
 *(.text .text.* .gnu.linkonce.t.*)
 .text          0x000800f4       0x40 c:/users/roxanne/desktop/programming/adkit/tools/arm-none-eabi-gcc/9.3.1-2020q2-windows/bin/../lib/gcc/arm-none-eabi/9.3.1/thumb/v7-m/nofp/crtbegin.o
 .text._sbrk    0x00080134       0x1c ../../lib/ArduinoCore-sam/out/sam.a(syscalls_sam3.o)
                0x00080134                _sbrk
 .text.link     0x00080150        0x6 ../../lib/ArduinoCore-sam/out/sam.a(syscalls_sam3.o)
                0x00080150                link
 .text._close   0x00080156        0x6 ../../lib/ArduinoCore-sam/out/sam.a(syscalls_sam3.o)
                0x00080156                _close
 .text._fstat   0x0008015c        0xa ../../lib/ArduinoCore-sam/out/sam.a(syscalls_sam3.o)
                0x0008015c                _fstat
 .text._isatty  0x00080166        0x4 ../../lib/ArduinoCore-sam/out/sam.a(syscalls_sam3.o)
                0x00080166                _isatty
 .text._lseek   0x0008016a        0x4 ../../lib/ArduinoCore-sam/out/sam.a(syscalls_sam3.o)
                0x0008016a                _lseek
 .text._read    0x0008016e        0x4 ../../lib/ArduinoCore-sam/out/sam.a(syscalls_sam3.o)
                0x0008016e                _read
 *fill*         0x00080172        0x2 
 .text._write   0x00080174       0x24 ../../lib/ArduinoCore-sam/out/sam.a(syscalls_sam3.o)
                0x00080174                _write
 .text._exit    0x00080198        0x2 ../../lib/ArduinoCore-sam/out/sam.a(syscalls_sam3.o)
                0x00080198                _exit
 .text._kill    0x0008019a        0x2 ../../lib/ArduinoCore-sam/out/sam.a(syscalls_sam3.o)
                0x0008019a                _kill
 .text._getpid  0x0008019c        0x6 ../../lib/ArduinoCore-sam/out/sam.a(syscalls_sam3.o)
                0x0008019c                _getpid
 *fill*         0x000801a2        0x2 
 .text.Reset_Handler
                0x000801a4       0x78 ../../lib/ArduinoCore-sam/variants/arduino_due_x/libsam_sam3x8e_gcc_rel.a(startup_sam3xa.o)
                0x000801a4                Reset_Handler
 .text.UOTGHS_Handler
                0x0008021c       0x10 ../../lib/ArduinoCore-sam/variants/arduino_due_x/libsam_sam3x8e_gcc_rel.a(uotghs.o)
                0x0008021c                UOTGHS_Handler
 .text.startup.main
                0x0008022c       0x74 build/asciz.a(main.o)
                0x0008022c                main
 .text.print_asciz
                0x000802a0       0x16 build/asciz.a(print_asciz.o)
                0x000802a0                print_asciz
 .text.toggle_asciz
                0x000802b6       0x1a build/asciz.a(toggle_asciz.o)
                0x000802b6                toggle_asciz
 .text          0x000802d0        0x8 build/asciz.a(application.o)
                0x000802d0                application
 .text          0x000802d8       0x22 build/asciz.a(print_asciz_asm.o)
                0x000802d8                print_asciz_asm
 .text          0x000802fa       0x20 build/asciz.a(toggle_asciz_asm.o)
                0x000802fa                toggle_asciz_asm
 .text._ZN10RingBufferC2Ev
                0x0008031a       0x1a ../../lib/ArduinoCore-sam/out/sam.a(RingBuffer.o)
                0x0008031a                RingBuffer::RingBuffer()
                0x0008031a                RingBuffer::RingBuffer()
 .text._ZN10RingBuffer10store_charEh
                0x00080334       0x1e ../../lib/ArduinoCore-sam/out/sam.a(RingBuffer.o)
                0x00080334                RingBuffer::store_char(unsigned char)
 .text._ZN9UARTClasscvbEv
                0x00080352        0x4 ../../lib/ArduinoCore-sam/out/sam.a(UARTClass.o)
                0x00080352                UARTClass::operator bool()
 .text._ZN9UARTClass9availableEv
                0x00080356       0x12 ../../lib/ArduinoCore-sam/out/sam.a(UARTClass.o)
                0x00080356                UARTClass::available()
 .text._ZN9UARTClass4peekEv
                0x00080368       0x1c ../../lib/ArduinoCore-sam/out/sam.a(UARTClass.o)
                0x00080368                UARTClass::peek()
 .text._ZN9UARTClass4readEv
                0x00080384       0x2a ../../lib/ArduinoCore-sam/out/sam.a(UARTClass.o)
                0x00080384                UARTClass::read()
 .text._ZN9UARTClass5flushEv
                0x000803ae       0x18 ../../lib/ArduinoCore-sam/out/sam.a(UARTClass.o)
                0x000803ae                UARTClass::flush()
 .text._ZN9UARTClass5writeEh
                0x000803c6       0x4e ../../lib/ArduinoCore-sam/out/sam.a(UARTClass.o)
                0x000803c6                UARTClass::write(unsigned char)
 .text._ZN9UARTClass3endEv
                0x00080414       0x3c ../../lib/ArduinoCore-sam/out/sam.a(UARTClass.o)
                0x00080414                UARTClass::end()
 .text._ZN9UARTClassC2EP4Uart4IRQnmP10RingBufferS4_
                0x00080450       0x28 ../../lib/ArduinoCore-sam/out/sam.a(UARTClass.o)
                0x00080450                UARTClass::UARTClass(Uart*, IRQn, unsigned long, RingBuffer*, RingBuffer*)
                0x00080450                UARTClass::UARTClass(Uart*, IRQn, unsigned long, RingBuffer*, RingBuffer*)
 .text._ZN9UARTClass4initEmm
                0x00080478       0x70 ../../lib/ArduinoCore-sam/out/sam.a(UARTClass.o)
                0x00080478                UARTClass::init(unsigned long, unsigned long)
 .text._ZN9UARTClass5beginEm
                0x000804e8        0x8 ../../lib/ArduinoCore-sam/out/sam.a(UARTClass.o)
                0x000804e8                UARTClass::begin(unsigned long)
 .text._ZN9UARTClass10IrqHandlerEv
                0x000804f0       0x5a ../../lib/ArduinoCore-sam/out/sam.a(UARTClass.o)
                0x000804f0                UARTClass::IrqHandler()
 *fill*         0x0008054a        0x2 
 .text._Z15watchdogDisablev
                0x0008054c        0xc ../../lib/ArduinoCore-sam/out/sam.a(watchdog.o)
                0x0008054c                watchdogDisable()
 .text._watchdogDefaultSetup
                0x00080558        0x4 ../../lib/ArduinoCore-sam/out/sam.a(watchdog.o)
                0x00080558                _watchdogDefaultSetup
                0x00080558                watchdogSetup()
 .text.__halt   0x0008055c        0x2 ../../lib/ArduinoCore-sam/out/sam.a(cortex_handlers.o)
                0x0008055c                DACC_Handler
                0x0008055c                DebugMon_Handler
                0x0008055c                DMAC_Handler
                0x0008055c                TRNG_Handler
                0x0008055c                HardFault_Handler
                0x0008055c                TC2_Handler
                0x0008055c                TWI1_Handler
                0x0008055c                NMI_Handler
                0x0008055c                TC7_Handler
                0x0008055c                ADC_Handler
                0x0008055c                SMC_Handler
                0x0008055c                RTT_Handler
                0x0008055c                EFC1_Handler
                0x0008055c                PIOB_Handler
                0x0008055c                RTC_Handler
                0x0008055c                UsageFault_Handler
                0x0008055c                TC6_Handler
                0x0008055c                WDT_Handler
                0x0008055c                CAN0_Handler
                0x0008055c                TC4_Handler
                0x0008055c                TC1_Handler
                0x0008055c                HSMCI_Handler
                0x0008055c                TC3_Handler
                0x0008055c                TWI0_Handler
                0x0008055c                PIOA_Handler
                0x0008055c                SSC_Handler
                0x0008055c                EFC0_Handler
                0x0008055c                PMC_Handler
                0x0008055c                PWM_Handler
                0x0008055c                CAN1_Handler
                0x0008055c                MemManage_Handler
                0x0008055c                SUPC_Handler
                0x0008055c                TC8_Handler
                0x0008055c                USART2_Handler
                0x0008055c                PIOD_Handler
                0x0008055c                EMAC_Handler
                0x0008055c                PIOC_Handler
                0x0008055c                BusFault_Handler
                0x0008055c                RSTC_Handler
                0x0008055c                TC0_Handler
                0x0008055c                TC5_Handler
                0x0008055c                SPI0_Handler
 .text.SVC_Handler
                0x0008055e        0x4 ../../lib/ArduinoCore-sam/out/sam.a(cortex_handlers.o)
                0x0008055e                SVC_Handler
 .text.PendSV_Handler
                0x00080562        0x4 ../../lib/ArduinoCore-sam/out/sam.a(cortex_handlers.o)
                0x00080562                PendSV_Handler
 .text.SysTick_Handler
                0x00080566       0x16 ../../lib/ArduinoCore-sam/out/sam.a(cortex_handlers.o)
                0x00080566                SysTick_Handler
 .text.__empty  0x0008057c        0x2 ../../lib/ArduinoCore-sam/out/sam.a(hooks.o)
                0x0008057c                yield
 .text.__false  0x0008057e        0x4 ../../lib/ArduinoCore-sam/out/sam.a(hooks.o)
                0x0008057e                sysTickHook
 .text.__halt   0x00080582        0x2 ../../lib/ArduinoCore-sam/out/sam.a(hooks.o)
                0x00080582                svcHook
                0x00080582                pendSVHook
 .text.delay    0x00080584       0x1c ../../lib/ArduinoCore-sam/out/sam.a(wiring.o)
                0x00080584                delay
 .text.UART_Handler
                0x000805a0        0xc ../../lib/ArduinoCore-sam/out/sam.a(variant.o)
                0x000805a0                UART_Handler
 .text.USART0_Handler
                0x000805ac        0xc ../../lib/ArduinoCore-sam/out/sam.a(variant.o)
                0x000805ac                USART0_Handler
 .text.USART1_Handler
                0x000805b8        0xc ../../lib/ArduinoCore-sam/out/sam.a(variant.o)
                0x000805b8                USART1_Handler
 .text.USART3_Handler
                0x000805c4        0xc ../../lib/ArduinoCore-sam/out/sam.a(variant.o)
                0x000805c4                USART3_Handler
 .text.init     0x000805d0      0x124 ../../lib/ArduinoCore-sam/out/sam.a(variant.o)
                0x000805d0                init
 .text.startup._GLOBAL__sub_I_g_APinDescription
                0x000806f4       0xd0 ../../lib/ArduinoCore-sam/out/sam.a(variant.o)
 .text._ZN5Print5writeEPKhj
                0x000807c4       0x22 ../../lib/ArduinoCore-sam/out/sam.a(Print.o)
                0x000807c4                Print::write(unsigned char const*, unsigned int)
 *fill*         0x000807e6        0x2 
 .text.tickReset
                0x000807e8       0x20 ../../lib/ArduinoCore-sam/out/sam.a(Reset.o)
                0x000807e8                tickReset
 .text._ZN10USARTClass5beginEm
                0x00080808        0x8 ../../lib/ArduinoCore-sam/out/sam.a(USARTClass.o)
                0x00080808                USARTClass::begin(unsigned long)
 .text._ZN10USARTClassC2EP5Usart4IRQnmP10RingBufferS4_
                0x00080810       0x24 ../../lib/ArduinoCore-sam/out/sam.a(USARTClass.o)
                0x00080810                USARTClass::USARTClass(Usart*, IRQn, unsigned long, RingBuffer*, RingBuffer*)
                0x00080810                USARTClass::USARTClass(Usart*, IRQn, unsigned long, RingBuffer*, RingBuffer*)
 .text.analogOutputInit
                0x00080834        0x2 ../../lib/ArduinoCore-sam/out/sam.a(wiring_analog.o)
                0x00080834                analogOutputInit
 *fill*         0x00080836        0x2 
 .text.pinMode  0x00080838       0xf4 ../../lib/ArduinoCore-sam/out/sam.a(wiring_digital.o)
                0x00080838                pinMode
 .text.digitalWrite
                0x0008092c       0x70 ../../lib/ArduinoCore-sam/out/sam.a(wiring_digital.o)
                0x0008092c                digitalWrite
 .text.PIO_PullUp
                0x0008099c        0xa ../../lib/ArduinoCore-sam/variants/arduino_due_x/libsam_sam3x8e_gcc_rel.a(pio.o)
                0x0008099c                PIO_PullUp
 .text.PIO_SetPeripheral
                0x000809a6       0x26 ../../lib/ArduinoCore-sam/variants/arduino_due_x/libsam_sam3x8e_gcc_rel.a(pio.o)
                0x000809a6                PIO_SetPeripheral
 .text.PIO_SetInput
                0x000809cc       0x26 ../../lib/ArduinoCore-sam/variants/arduino_due_x/libsam_sam3x8e_gcc_rel.a(pio.o)
                0x000809cc                PIO_SetInput
 .text.PIO_SetOutput
                0x000809f2       0x24 ../../lib/ArduinoCore-sam/variants/arduino_due_x/libsam_sam3x8e_gcc_rel.a(pio.o)
                0x000809f2                PIO_SetOutput
 *fill*         0x00080a16        0x2 
 .text.PIO_Configure
                0x00080a18       0x64 ../../lib/ArduinoCore-sam/variants/arduino_due_x/libsam_sam3x8e_gcc_rel.a(pio.o)
                0x00080a18                PIO_Configure
 .text.PIO_GetOutputDataStatus
                0x00080a7c       0x14 ../../lib/ArduinoCore-sam/variants/arduino_due_x/libsam_sam3x8e_gcc_rel.a(pio.o)
                0x00080a7c                PIO_GetOutputDataStatus
 .text.pmc_enable_periph_clk
                0x00080a90       0x44 ../../lib/ArduinoCore-sam/variants/arduino_due_x/libsam_sam3x8e_gcc_rel.a(pmc.o)
                0x00080a90                pmc_enable_periph_clk
 .text.pmc_disable_periph_clk
                0x00080ad4       0x40 ../../lib/ArduinoCore-sam/variants/arduino_due_x/libsam_sam3x8e_gcc_rel.a(pmc.o)
                0x00080ad4                pmc_disable_periph_clk
 .text.TimeTick_Increment
                0x00080b14       0x10 ../../lib/ArduinoCore-sam/variants/arduino_due_x/libsam_sam3x8e_gcc_rel.a(timetick.o)
                0x00080b14                TimeTick_Increment
 .text.GetTickCount
                0x00080b24        0xc ../../lib/ArduinoCore-sam/variants/arduino_due_x/libsam_sam3x8e_gcc_rel.a(timetick.o)
                0x00080b24                GetTickCount
 .text.WDT_Disable
                0x00080b30        0x8 ../../lib/ArduinoCore-sam/variants/arduino_due_x/libsam_sam3x8e_gcc_rel.a(wdt.o)
                0x00080b30                WDT_Disable
 .text.SystemInit
                0x00080b38       0x88 ../../lib/ArduinoCore-sam/variants/arduino_due_x/libsam_sam3x8e_gcc_rel.a(system_sam3xa.o)
                0x00080b38                SystemInit
 .text.adc_init
                0x00080bc0       0x98 ../../lib/ArduinoCore-sam/variants/arduino_due_x/libsam_sam3x8e_gcc_rel.a(adc.o)
                0x00080bc0                adc_init
 .text.adc_configure_trigger
                0x00080c58        0xe ../../lib/ArduinoCore-sam/variants/arduino_due_x/libsam_sam3x8e_gcc_rel.a(adc.o)
                0x00080c58                adc_configure_trigger
 .text.adc_configure_timing
                0x00080c66       0x1a ../../lib/ArduinoCore-sam/variants/arduino_due_x/libsam_sam3x8e_gcc_rel.a(adc.o)
                0x00080c66                adc_configure_timing
 .text.adc_disable_channel
                0x00080c80        0xa ../../lib/ArduinoCore-sam/variants/arduino_due_x/libsam_sam3x8e_gcc_rel.a(adc.o)
                0x00080c80                adc_disable_channel
 .text.adc_disable_all_channel
                0x00080c8a        0x8 ../../lib/ArduinoCore-sam/variants/arduino_due_x/libsam_sam3x8e_gcc_rel.a(adc.o)
                0x00080c8a                adc_disable_all_channel
 .text.adc_disable_interrupt
                0x00080c92        0x4 ../../lib/ArduinoCore-sam/variants/arduino_due_x/libsam_sam3x8e_gcc_rel.a(adc.o)
                0x00080c92                adc_disable_interrupt
 *fill*         0x00080c96        0x2 
 .text          0x00080c98      0x378 c:/users/roxanne/desktop/programming/adkit/tools/arm-none-eabi-gcc/9.3.1-2020q2-windows/bin/../lib/gcc/arm-none-eabi/9.3.1/thumb/v7-m/nofp\libgcc.a(_arm_addsubdf3.o)
                0x00080c98                __aeabi_drsub
                0x00080ca0                __aeabi_dsub
                0x00080ca0                __subdf3
                0x00080ca4                __aeabi_dadd
                0x00080ca4                __adddf3
                0x00080f1c                __floatunsidf
                0x00080f1c                __aeabi_ui2d
                0x00080f3c                __floatsidf
                0x00080f3c                __aeabi_i2d
                0x00080f60                __aeabi_f2d
                0x00080f60                __extendsfdf2
                0x00080fa4                __floatundidf
                0x00080fa4                __aeabi_ul2d
                0x00080fb4                __floatdidf
                0x00080fb4                __aeabi_l2d
 .text          0x00081010      0x424 c:/users/roxanne/desktop/programming/adkit/tools/arm-none-eabi-gcc/9.3.1-2020q2-windows/bin/../lib/gcc/arm-none-eabi/9.3.1/thumb/v7-m/nofp\libgcc.a(_arm_muldivdf3.o)
                0x00081010                __aeabi_dmul
                0x00081010                __muldf3
                0x00081264                __divdf3
                0x00081264                __aeabi_ddiv
 .text          0x00081434      0x110 c:/users/roxanne/desktop/programming/adkit/tools/arm-none-eabi-gcc/9.3.1-2020q2-windows/bin/../lib/gcc/arm-none-eabi/9.3.1/thumb/v7-m/nofp\libgcc.a(_arm_cmpdf2.o)
                0x00081434                __gtdf2
                0x00081434                __gedf2
                0x0008143c                __ltdf2
                0x0008143c                __ledf2
                0x00081444                __nedf2
                0x00081444                __eqdf2
                0x00081444                __cmpdf2
                0x000814c0                __aeabi_cdrcmple
                0x000814d0                __aeabi_cdcmpeq
                0x000814d0                __aeabi_cdcmple
                0x000814e0                __aeabi_dcmpeq
                0x000814f4                __aeabi_dcmplt
                0x00081508                __aeabi_dcmple
                0x0008151c                __aeabi_dcmpge
                0x00081530                __aeabi_dcmpgt
 .text          0x00081544       0x2c c:/users/roxanne/desktop/programming/adkit/tools/arm-none-eabi-gcc/9.3.1-2020q2-windows/bin/../lib/gcc/arm-none-eabi/9.3.1/thumb/v7-m/nofp\libgcc.a(_arm_unorddf2.o)
                0x00081544                __unorddf2
                0x00081544                __aeabi_dcmpun
 .text          0x00081570      0x9a8 c:/users/roxanne/desktop/programming/adkit/tools/arm-none-eabi-gcc/9.3.1-2020q2-windows/bin/../lib/gcc/arm-none-eabi/9.3.1/thumb/v7-m/nofp\libgcc.a(unwind-arm.o)
                0x00081814                _Unwind_GetCFA
                0x00081818                __gnu_Unwind_RaiseException
                0x00081878                __gnu_Unwind_ForcedUnwind
                0x0008188c                __gnu_Unwind_Resume
                0x000818d0                __gnu_Unwind_Resume_or_Rethrow
                0x000818e4                _Unwind_Complete
                0x000818e8                _Unwind_DeleteException
                0x000818f4                _Unwind_VRS_Get
                0x0008193c                _Unwind_VRS_Set
                0x00081988                __gnu_Unwind_Backtrace
                0x00081ca4                __aeabi_unwind_cpp_pr0
                0x00081ca8                __aeabi_unwind_cpp_pr1
                0x00081cac                __aeabi_unwind_cpp_pr2
                0x00081cb0                _Unwind_VRS_Pop
 .text          0x00081f18      0x1ac c:/users/roxanne/desktop/programming/adkit/tools/arm-none-eabi-gcc/9.3.1-2020q2-windows/bin/../lib/gcc/arm-none-eabi/9.3.1/thumb/v7-m/nofp\libgcc.a(libunwind.o)
                0x00081f18                __restore_core_regs
                0x00081f18                restore_core_regs
                0x00081f30                __gnu_Unwind_Restore_VFP
                0x00081f38                __gnu_Unwind_Save_VFP
                0x00081f40                __gnu_Unwind_Restore_VFP_D
                0x00081f48                __gnu_Unwind_Save_VFP_D
                0x00081f50                __gnu_Unwind_Restore_VFP_D_16_to_31
                0x00081f58                __gnu_Unwind_Save_VFP_D_16_to_31
                0x00081f60                __gnu_Unwind_Restore_WMMXD
                0x00081fa4                __gnu_Unwind_Save_WMMXD
                0x00081fe8                __gnu_Unwind_Restore_WMMXC
                0x00081ffc                __gnu_Unwind_Save_WMMXC
                0x00082010                ___Unwind_RaiseException
                0x00082010                _Unwind_RaiseException
                0x00082034                _Unwind_Resume
                0x00082034                ___Unwind_Resume
                0x00082058                _Unwind_Resume_or_Rethrow
                0x00082058                ___Unwind_Resume_or_Rethrow
                0x0008207c                _Unwind_ForcedUnwind
                0x0008207c                ___Unwind_ForcedUnwind
                0x000820a0                ___Unwind_Backtrace
                0x000820a0                _Unwind_Backtrace
 .text          0x000820c4      0x33c c:/users/roxanne/desktop/programming/adkit/tools/arm-none-eabi-gcc/9.3.1-2020q2-windows/bin/../lib/gcc/arm-none-eabi/9.3.1/thumb/v7-m/nofp\libgcc.a(pr-support.o)
                0x0008211c                __gnu_unwind_execute
                0x000823b8                __gnu_unwind_frame
                0x000823e0                _Unwind_GetRegionStart
                0x000823ec                _Unwind_GetLanguageSpecificData
 .text.abort    0x00082400       0x10 c:/users/roxanne/desktop/programming/adkit/tools/arm-none-eabi-gcc/9.3.1-2020q2-windows/bin/../lib/gcc/arm-none-eabi/9.3.1/../../../../arm-none-eabi/lib/thumb/v7-m/nofp\libc.a(lib_a-abort.o)
                0x00082400                abort
 .text.__assert_func
                0x00082410       0x3c c:/users/roxanne/desktop/programming/adkit/tools/arm-none-eabi-gcc/9.3.1-2020q2-windows/bin/../lib/gcc/arm-none-eabi/9.3.1/../../../../arm-none-eabi/lib/thumb/v7-m/nofp\libc.a(lib_a-assert.o)
                0x00082410                __assert_func
 .text.fiprintf
                0x0008244c       0x28 c:/users/roxanne/desktop/programming/adkit/tools/arm-none-eabi-gcc/9.3.1-2020q2-windows/bin/../lib/gcc/arm-none-eabi/9.3.1/../../../../arm-none-eabi/lib/thumb/v7-m/nofp\libc.a(lib_a-fiprintf.o)
                0x0008244c                fiprintf
 .text.__libc_init_array
                0x00082474       0x48 c:/users/roxanne/desktop/programming/adkit/tools/arm-none-eabi-gcc/9.3.1-2020q2-windows/bin/../lib/gcc/arm-none-eabi/9.3.1/../../../../arm-none-eabi/lib/thumb/v7-m/nofp\libc.a(lib_a-init.o)
                0x00082474                __libc_init_array
 .text          0x000824bc       0xec c:/users/roxanne/desktop/programming/adkit/tools/arm-none-eabi-gcc/9.3.1-2020q2-windows/bin/../lib/gcc/arm-none-eabi/9.3.1/../../../../arm-none-eabi/lib/thumb/v7-m/nofp\libc.a(lib_a-memcpy.o)
                0x000824bc                memcpy
 .text.memset   0x000825a8       0xa0 c:/users/roxanne/desktop/programming/adkit/tools/arm-none-eabi-gcc/9.3.1-2020q2-windows/bin/../lib/gcc/arm-none-eabi/9.3.1/../../../../arm-none-eabi/lib/thumb/v7-m/nofp\libc.a(lib_a-memset.o)
                0x000825a8                memset
 .text.printf   0x00082648       0x28 c:/users/roxanne/desktop/programming/adkit/tools/arm-none-eabi-gcc/9.3.1-2020q2-windows/bin/../lib/gcc/arm-none-eabi/9.3.1/../../../../arm-none-eabi/lib/thumb/v7-m/nofp\libc.a(lib_a-printf.o)
                0x00082648                printf
 .text.putchar  0x00082670       0x10 c:/users/roxanne/desktop/programming/adkit/tools/arm-none-eabi-gcc/9.3.1-2020q2-windows/bin/../lib/gcc/arm-none-eabi/9.3.1/../../../../arm-none-eabi/lib/thumb/v7-m/nofp\libc.a(lib_a-putchar.o)
                0x00082670                putchar
 .text._raise_r
                0x00082680       0x58 c:/users/roxanne/desktop/programming/adkit/tools/arm-none-eabi-gcc/9.3.1-2020q2-windows/bin/../lib/gcc/arm-none-eabi/9.3.1/../../../../arm-none-eabi/lib/thumb/v7-m/nofp\libc.a(lib_a-signal.o)
                0x00082680                _raise_r
 .text.raise    0x000826d8       0x10 c:/users/roxanne/desktop/programming/adkit/tools/arm-none-eabi-gcc/9.3.1-2020q2-windows/bin/../lib/gcc/arm-none-eabi/9.3.1/../../../../arm-none-eabi/lib/thumb/v7-m/nofp\libc.a(lib_a-signal.o)
                0x000826d8                raise
 .text._kill_r  0x000826e8       0x2c c:/users/roxanne/desktop/programming/adkit/tools/arm-none-eabi-gcc/9.3.1-2020q2-windows/bin/../lib/gcc/arm-none-eabi/9.3.1/../../../../arm-none-eabi/lib/thumb/v7-m/nofp\libc.a(lib_a-signalr.o)
                0x000826e8                _kill_r
 .text._getpid_r
                0x00082714        0x4 c:/users/roxanne/desktop/programming/adkit/tools/arm-none-eabi-gcc/9.3.1-2020q2-windows/bin/../lib/gcc/arm-none-eabi/9.3.1/../../../../arm-none-eabi/lib/thumb/v7-m/nofp\libc.a(lib_a-signalr.o)
                0x00082714                _getpid_r
 .text.strlen   0x00082718       0x5c c:/users/roxanne/desktop/programming/adkit/tools/arm-none-eabi-gcc/9.3.1-2020q2-windows/bin/../lib/gcc/arm-none-eabi/9.3.1/../../../../arm-none-eabi/lib/thumb/v7-m/nofp\libc.a(lib_a-strlen-stub.o)
                0x00082718                strlen
 .text.kill     0x00082774       0x10 c:/users/roxanne/desktop/programming/adkit/tools/arm-none-eabi-gcc/9.3.1-2020q2-windows/bin/../lib/gcc/arm-none-eabi/9.3.1/../../../../arm-none-eabi/lib/thumb/v7-m/nofp\libc.a(lib_a-syskill.o)
                0x00082774                kill
 .text.__sprint_r.part.0
                0x00082784       0x78 c:/users/roxanne/desktop/programming/adkit/tools/arm-none-eabi-gcc/9.3.1-2020q2-windows/bin/../lib/gcc/arm-none-eabi/9.3.1/../../../../arm-none-eabi/lib/thumb/v7-m/nofp\libc.a(lib_a-vfiprintf.o)
 .text.__sprint_r
                0x000827fc       0x14 c:/users/roxanne/desktop/programming/adkit/tools/arm-none-eabi-gcc/9.3.1-2020q2-windows/bin/../lib/gcc/arm-none-eabi/9.3.1/../../../../arm-none-eabi/lib/thumb/v7-m/nofp\libc.a(lib_a-vfiprintf.o)
                0x000827fc                __sprint_r
 .text._vfiprintf_r
                0x00082810      0xd2c c:/users/roxanne/desktop/programming/adkit/tools/arm-none-eabi-gcc/9.3.1-2020q2-windows/bin/../lib/gcc/arm-none-eabi/9.3.1/../../../../arm-none-eabi/lib/thumb/v7-m/nofp\libc.a(lib_a-vfiprintf.o)
                0x00082810                _vfiprintf_r
 .text.__sbprintf
                0x0008353c       0x88 c:/users/roxanne/desktop/programming/adkit/tools/arm-none-eabi-gcc/9.3.1-2020q2-windows/bin/../lib/gcc/arm-none-eabi/9.3.1/../../../../arm-none-eabi/lib/thumb/v7-m/nofp\libc.a(lib_a-vfiprintf.o)
 .text._vfprintf_r
                0x000835c4     0x1c18 c:/users/roxanne/desktop/programming/adkit/tools/arm-none-eabi-gcc/9.3.1-2020q2-windows/bin/../lib/gcc/arm-none-eabi/9.3.1/../../../../arm-none-eabi/lib/thumb/v7-m/nofp\libc.a(lib_a-vfprintf.o)
                0x000835c4                _vfprintf_r
 .text.__sbprintf
                0x000851dc       0x88 c:/users/roxanne/desktop/programming/adkit/tools/arm-none-eabi-gcc/9.3.1-2020q2-windows/bin/../lib/gcc/arm-none-eabi/9.3.1/../../../../arm-none-eabi/lib/thumb/v7-m/nofp\libc.a(lib_a-vfprintf.o)
 .text.__swsetup_r
                0x00085264       0xd0 c:/users/roxanne/desktop/programming/adkit/tools/arm-none-eabi-gcc/9.3.1-2020q2-windows/bin/../lib/gcc/arm-none-eabi/9.3.1/../../../../arm-none-eabi/lib/thumb/v7-m/nofp\libc.a(lib_a-wsetup.o)
                0x00085264                __swsetup_r
 .text.startup.register_fini
                0x00085334       0x14 c:/users/roxanne/desktop/programming/adkit/tools/arm-none-eabi-gcc/9.3.1-2020q2-windows/bin/../lib/gcc/arm-none-eabi/9.3.1/../../../../arm-none-eabi/lib/thumb/v7-m/nofp\libc.a(lib_a-__call_atexit.o)
 .text.atexit   0x00085348        0xc c:/users/roxanne/desktop/programming/adkit/tools/arm-none-eabi-gcc/9.3.1-2020q2-windows/bin/../lib/gcc/arm-none-eabi/9.3.1/../../../../arm-none-eabi/lib/thumb/v7-m/nofp\libc.a(lib_a-atexit.o)
                0x00085348                atexit
 .text.quorem   0x00085354      0x120 c:/users/roxanne/desktop/programming/adkit/tools/arm-none-eabi-gcc/9.3.1-2020q2-windows/bin/../lib/gcc/arm-none-eabi/9.3.1/../../../../arm-none-eabi/lib/thumb/v7-m/nofp\libc.a(lib_a-dtoa.o)
 *fill*         0x00085474        0x4 
 .text._dtoa_r  0x00085478      0xec8 c:/users/roxanne/desktop/programming/adkit/tools/arm-none-eabi-gcc/9.3.1-2020q2-windows/bin/../lib/gcc/arm-none-eabi/9.3.1/../../../../arm-none-eabi/lib/thumb/v7-m/nofp\libc.a(lib_a-dtoa.o)
                0x00085478                _dtoa_r
 .text.__sflush_r
                0x00086340      0x130 c:/users/roxanne/desktop/programming/adkit/tools/arm-none-eabi-gcc/9.3.1-2020q2-windows/bin/../lib/gcc/arm-none-eabi/9.3.1/../../../../arm-none-eabi/lib/thumb/v7-m/nofp\libc.a(lib_a-fflush.o)
                0x00086340                __sflush_r
 .text._fflush_r
                0x00086470       0x5c c:/users/roxanne/desktop/programming/adkit/tools/arm-none-eabi-gcc/9.3.1-2020q2-windows/bin/../lib/gcc/arm-none-eabi/9.3.1/../../../../arm-none-eabi/lib/thumb/v7-m/nofp\libc.a(lib_a-fflush.o)
                0x00086470                _fflush_r
 .text.std      0x000864cc       0x50 c:/users/roxanne/desktop/programming/adkit/tools/arm-none-eabi-gcc/9.3.1-2020q2-windows/bin/../lib/gcc/arm-none-eabi/9.3.1/../../../../arm-none-eabi/lib/thumb/v7-m/nofp\libc.a(lib_a-findfp.o)
 .text._cleanup_r
                0x0008651c        0xc c:/users/roxanne/desktop/programming/adkit/tools/arm-none-eabi-gcc/9.3.1-2020q2-windows/bin/../lib/gcc/arm-none-eabi/9.3.1/../../../../arm-none-eabi/lib/thumb/v7-m/nofp\libc.a(lib_a-findfp.o)
                0x0008651c                _cleanup_r
 .text.__sinit  0x00086528       0x5c c:/users/roxanne/desktop/programming/adkit/tools/arm-none-eabi-gcc/9.3.1-2020q2-windows/bin/../lib/gcc/arm-none-eabi/9.3.1/../../../../arm-none-eabi/lib/thumb/v7-m/nofp\libc.a(lib_a-findfp.o)
                0x00086528                __sinit
 .text.__sfp_lock_acquire
                0x00086584        0xc c:/users/roxanne/desktop/programming/adkit/tools/arm-none-eabi-gcc/9.3.1-2020q2-windows/bin/../lib/gcc/arm-none-eabi/9.3.1/../../../../arm-none-eabi/lib/thumb/v7-m/nofp\libc.a(lib_a-findfp.o)
                0x00086584                __sfp_lock_acquire
 .text.__sfp_lock_release
                0x00086590        0xc c:/users/roxanne/desktop/programming/adkit/tools/arm-none-eabi-gcc/9.3.1-2020q2-windows/bin/../lib/gcc/arm-none-eabi/9.3.1/../../../../arm-none-eabi/lib/thumb/v7-m/nofp\libc.a(lib_a-findfp.o)
                0x00086590                __sfp_lock_release
 .text.__libc_fini_array
                0x0008659c       0x2c c:/users/roxanne/desktop/programming/adkit/tools/arm-none-eabi-gcc/9.3.1-2020q2-windows/bin/../lib/gcc/arm-none-eabi/9.3.1/../../../../arm-none-eabi/lib/thumb/v7-m/nofp\libc.a(lib_a-fini.o)
                0x0008659c                __libc_fini_array
 .text.__fputwc
                0x000865c8       0xa0 c:/users/roxanne/desktop/programming/adkit/tools/arm-none-eabi-gcc/9.3.1-2020q2-windows/bin/../lib/gcc/arm-none-eabi/9.3.1/../../../../arm-none-eabi/lib/thumb/v7-m/nofp\libc.a(lib_a-fputwc.o)
                0x000865c8                __fputwc
 .text._fputwc_r
                0x00086668       0x68 c:/users/roxanne/desktop/programming/adkit/tools/arm-none-eabi-gcc/9.3.1-2020q2-windows/bin/../lib/gcc/arm-none-eabi/9.3.1/../../../../arm-none-eabi/lib/thumb/v7-m/nofp\libc.a(lib_a-fputwc.o)
                0x00086668                _fputwc_r
 .text._malloc_trim_r
                0x000866d0       0xa0 c:/users/roxanne/desktop/programming/adkit/tools/arm-none-eabi-gcc/9.3.1-2020q2-windows/bin/../lib/gcc/arm-none-eabi/9.3.1/../../../../arm-none-eabi/lib/thumb/v7-m/nofp\libc.a(lib_a-freer.o)
                0x000866d0                _malloc_trim_r
 .text._free_r  0x00086770      0x20c c:/users/roxanne/desktop/programming/adkit/tools/arm-none-eabi-gcc/9.3.1-2020q2-windows/bin/../lib/gcc/arm-none-eabi/9.3.1/../../../../arm-none-eabi/lib/thumb/v7-m/nofp\libc.a(lib_a-freer.o)
                0x00086770                _free_r
 .text.__sfvwrite_r
                0x0008697c      0x2ec c:/users/roxanne/desktop/programming/adkit/tools/arm-none-eabi-gcc/9.3.1-2020q2-windows/bin/../lib/gcc/arm-none-eabi/9.3.1/../../../../arm-none-eabi/lib/thumb/v7-m/nofp\libc.a(lib_a-fvwrite.o)
                0x0008697c                __sfvwrite_r
 .text._fwalk_reent
                0x00086c68       0x48 c:/users/roxanne/desktop/programming/adkit/tools/arm-none-eabi-gcc/9.3.1-2020q2-windows/bin/../lib/gcc/arm-none-eabi/9.3.1/../../../../arm-none-eabi/lib/thumb/v7-m/nofp\libc.a(lib_a-fwalk.o)
                0x00086c68                _fwalk_reent
 .text.__locale_mb_cur_max
                0x00086cb0        0xc c:/users/roxanne/desktop/programming/adkit/tools/arm-none-eabi-gcc/9.3.1-2020q2-windows/bin/../lib/gcc/arm-none-eabi/9.3.1/../../../../arm-none-eabi/lib/thumb/v7-m/nofp\libc.a(lib_a-locale.o)
                0x00086cb0                __locale_mb_cur_max
 .text._localeconv_r
                0x00086cbc        0x8 c:/users/roxanne/desktop/programming/adkit/tools/arm-none-eabi-gcc/9.3.1-2020q2-windows/bin/../lib/gcc/arm-none-eabi/9.3.1/../../../../arm-none-eabi/lib/thumb/v7-m/nofp\libc.a(lib_a-localeconv.o)
                0x00086cbc                _localeconv_r
 .text.__retarget_lock_init_recursive
                0x00086cc4        0x4 c:/users/roxanne/desktop/programming/adkit/tools/arm-none-eabi-gcc/9.3.1-2020q2-windows/bin/../lib/gcc/arm-none-eabi/9.3.1/../../../../arm-none-eabi/lib/thumb/v7-m/nofp\libc.a(lib_a-lock.o)
                0x00086cc4                __retarget_lock_init_recursive
 .text.__retarget_lock_close_recursive
                0x00086cc8        0x4 c:/users/roxanne/desktop/programming/adkit/tools/arm-none-eabi-gcc/9.3.1-2020q2-windows/bin/../lib/gcc/arm-none-eabi/9.3.1/../../../../arm-none-eabi/lib/thumb/v7-m/nofp\libc.a(lib_a-lock.o)
                0x00086cc8                __retarget_lock_close_recursive
 .text.__retarget_lock_acquire_recursive
                0x00086ccc        0x4 c:/users/roxanne/desktop/programming/adkit/tools/arm-none-eabi-gcc/9.3.1-2020q2-windows/bin/../lib/gcc/arm-none-eabi/9.3.1/../../../../arm-none-eabi/lib/thumb/v7-m/nofp\libc.a(lib_a-lock.o)
                0x00086ccc                __retarget_lock_acquire_recursive
 .text.__retarget_lock_release_recursive
                0x00086cd0        0x4 c:/users/roxanne/desktop/programming/adkit/tools/arm-none-eabi-gcc/9.3.1-2020q2-windows/bin/../lib/gcc/arm-none-eabi/9.3.1/../../../../arm-none-eabi/lib/thumb/v7-m/nofp\libc.a(lib_a-lock.o)
                0x00086cd0                __retarget_lock_release_recursive
 .text.__swhatbuf_r
                0x00086cd4       0x5c c:/users/roxanne/desktop/programming/adkit/tools/arm-none-eabi-gcc/9.3.1-2020q2-windows/bin/../lib/gcc/arm-none-eabi/9.3.1/../../../../arm-none-eabi/lib/thumb/v7-m/nofp\libc.a(lib_a-makebuf.o)
                0x00086cd4                __swhatbuf_r
 .text.__smakebuf_r
                0x00086d30       0x94 c:/users/roxanne/desktop/programming/adkit/tools/arm-none-eabi-gcc/9.3.1-2020q2-windows/bin/../lib/gcc/arm-none-eabi/9.3.1/../../../../arm-none-eabi/lib/thumb/v7-m/nofp\libc.a(lib_a-makebuf.o)
                0x00086d30                __smakebuf_r
 .text._malloc_r
                0x00086dc4      0x55c c:/users/roxanne/desktop/programming/adkit/tools/arm-none-eabi-gcc/9.3.1-2020q2-windows/bin/../lib/gcc/arm-none-eabi/9.3.1/../../../../arm-none-eabi/lib/thumb/v7-m/nofp\libc.a(lib_a-mallocr.o)
                0x00086dc4                _malloc_r
 .text.__ascii_mbtowc
                0x00087320       0x2c c:/users/roxanne/desktop/programming/adkit/tools/arm-none-eabi-gcc/9.3.1-2020q2-windows/bin/../lib/gcc/arm-none-eabi/9.3.1/../../../../arm-none-eabi/lib/thumb/v7-m/nofp\libc.a(lib_a-mbtowc_r.o)
                0x00087320                __ascii_mbtowc
 .text.memchr   0x0008734c       0x80 c:/users/roxanne/desktop/programming/adkit/tools/arm-none-eabi-gcc/9.3.1-2020q2-windows/bin/../lib/gcc/arm-none-eabi/9.3.1/../../../../arm-none-eabi/lib/thumb/v7-m/nofp\libc.a(lib_a-memchr-stub.o)
                0x0008734c                memchr
 .text.memmove  0x000873cc       0xd4 c:/users/roxanne/desktop/programming/adkit/tools/arm-none-eabi-gcc/9.3.1-2020q2-windows/bin/../lib/gcc/arm-none-eabi/9.3.1/../../../../arm-none-eabi/lib/thumb/v7-m/nofp\libc.a(lib_a-memmove.o)
                0x000873cc                memmove
 .text.__malloc_lock
                0x000874a0        0xc c:/users/roxanne/desktop/programming/adkit/tools/arm-none-eabi-gcc/9.3.1-2020q2-windows/bin/../lib/gcc/arm-none-eabi/9.3.1/../../../../arm-none-eabi/lib/thumb/v7-m/nofp\libc.a(lib_a-mlock.o)
                0x000874a0                __malloc_lock
 .text.__malloc_unlock
                0x000874ac        0xc c:/users/roxanne/desktop/programming/adkit/tools/arm-none-eabi-gcc/9.3.1-2020q2-windows/bin/../lib/gcc/arm-none-eabi/9.3.1/../../../../arm-none-eabi/lib/thumb/v7-m/nofp\libc.a(lib_a-mlock.o)
                0x000874ac                __malloc_unlock
 .text._Balloc  0x000874b8       0x4c c:/users/roxanne/desktop/programming/adkit/tools/arm-none-eabi-gcc/9.3.1-2020q2-windows/bin/../lib/gcc/arm-none-eabi/9.3.1/../../../../arm-none-eabi/lib/thumb/v7-m/nofp\libc.a(lib_a-mprec.o)
                0x000874b8                _Balloc
 .text._Bfree   0x00087504       0x14 c:/users/roxanne/desktop/programming/adkit/tools/arm-none-eabi-gcc/9.3.1-2020q2-windows/bin/../lib/gcc/arm-none-eabi/9.3.1/../../../../arm-none-eabi/lib/thumb/v7-m/nofp\libc.a(lib_a-mprec.o)
                0x00087504                _Bfree
 .text.__multadd
                0x00087518       0x9c c:/users/roxanne/desktop/programming/adkit/tools/arm-none-eabi-gcc/9.3.1-2020q2-windows/bin/../lib/gcc/arm-none-eabi/9.3.1/../../../../arm-none-eabi/lib/thumb/v7-m/nofp\libc.a(lib_a-mprec.o)
                0x00087518                __multadd
 .text.__hi0bits
                0x000875b4       0x40 c:/users/roxanne/desktop/programming/adkit/tools/arm-none-eabi-gcc/9.3.1-2020q2-windows/bin/../lib/gcc/arm-none-eabi/9.3.1/../../../../arm-none-eabi/lib/thumb/v7-m/nofp\libc.a(lib_a-mprec.o)
                0x000875b4                __hi0bits
 .text.__lo0bits
                0x000875f4       0x60 c:/users/roxanne/desktop/programming/adkit/tools/arm-none-eabi-gcc/9.3.1-2020q2-windows/bin/../lib/gcc/arm-none-eabi/9.3.1/../../../../arm-none-eabi/lib/thumb/v7-m/nofp\libc.a(lib_a-mprec.o)
                0x000875f4                __lo0bits
 .text.__i2b    0x00087654       0x2c c:/users/roxanne/desktop/programming/adkit/tools/arm-none-eabi-gcc/9.3.1-2020q2-windows/bin/../lib/gcc/arm-none-eabi/9.3.1/../../../../arm-none-eabi/lib/thumb/v7-m/nofp\libc.a(lib_a-mprec.o)
                0x00087654                __i2b
 .text.__multiply
                0x00087680      0x160 c:/users/roxanne/desktop/programming/adkit/tools/arm-none-eabi-gcc/9.3.1-2020q2-windows/bin/../lib/gcc/arm-none-eabi/9.3.1/../../../../arm-none-eabi/lib/thumb/v7-m/nofp\libc.a(lib_a-mprec.o)
                0x00087680                __multiply
 .text.__pow5mult
                0x000877e0       0x98 c:/users/roxanne/desktop/programming/adkit/tools/arm-none-eabi-gcc/9.3.1-2020q2-windows/bin/../lib/gcc/arm-none-eabi/9.3.1/../../../../arm-none-eabi/lib/thumb/v7-m/nofp\libc.a(lib_a-mprec.o)
                0x000877e0                __pow5mult
 .text.__lshift
                0x00087878       0xe8 c:/users/roxanne/desktop/programming/adkit/tools/arm-none-eabi-gcc/9.3.1-2020q2-windows/bin/../lib/gcc/arm-none-eabi/9.3.1/../../../../arm-none-eabi/lib/thumb/v7-m/nofp\libc.a(lib_a-mprec.o)
                0x00087878                __lshift
 .text.__mcmp   0x00087960       0x3c c:/users/roxanne/desktop/programming/adkit/tools/arm-none-eabi-gcc/9.3.1-2020q2-windows/bin/../lib/gcc/arm-none-eabi/9.3.1/../../../../arm-none-eabi/lib/thumb/v7-m/nofp\libc.a(lib_a-mprec.o)
                0x00087960                __mcmp
 .text.__mdiff  0x0008799c      0x150 c:/users/roxanne/desktop/programming/adkit/tools/arm-none-eabi-gcc/9.3.1-2020q2-windows/bin/../lib/gcc/arm-none-eabi/9.3.1/../../../../arm-none-eabi/lib/thumb/v7-m/nofp\libc.a(lib_a-mprec.o)
                0x0008799c                __mdiff
 .text.__d2b    0x00087aec       0xc4 c:/users/roxanne/desktop/programming/adkit/tools/arm-none-eabi-gcc/9.3.1-2020q2-windows/bin/../lib/gcc/arm-none-eabi/9.3.1/../../../../arm-none-eabi/lib/thumb/v7-m/nofp\libc.a(lib_a-mprec.o)
                0x00087aec                __d2b
 .text._putc_r  0x00087bb0       0x74 c:/users/roxanne/desktop/programming/adkit/tools/arm-none-eabi-gcc/9.3.1-2020q2-windows/bin/../lib/gcc/arm-none-eabi/9.3.1/../../../../arm-none-eabi/lib/thumb/v7-m/nofp\libc.a(lib_a-putc.o)
                0x00087bb0                _putc_r
 .text._realloc_r
                0x00087c24      0x3e0 c:/users/roxanne/desktop/programming/adkit/tools/arm-none-eabi-gcc/9.3.1-2020q2-windows/bin/../lib/gcc/arm-none-eabi/9.3.1/../../../../arm-none-eabi/lib/thumb/v7-m/nofp\libc.a(lib_a-reallocr.o)
                0x00087c24                _realloc_r
 .text.frexp    0x00088004       0x70 c:/users/roxanne/desktop/programming/adkit/tools/arm-none-eabi-gcc/9.3.1-2020q2-windows/bin/../lib/gcc/arm-none-eabi/9.3.1/../../../../arm-none-eabi/lib/thumb/v7-m/nofp\libc.a(lib_a-s_frexp.o)
                0x00088004                frexp
 .text._sbrk_r  0x00088074       0x24 c:/users/roxanne/desktop/programming/adkit/tools/arm-none-eabi-gcc/9.3.1-2020q2-windows/bin/../lib/gcc/arm-none-eabi/9.3.1/../../../../arm-none-eabi/lib/thumb/v7-m/nofp\libc.a(lib_a-sbrkr.o)
                0x00088074                _sbrk_r
 .text.__sread  0x00088098       0x24 c:/users/roxanne/desktop/programming/adkit/tools/arm-none-eabi-gcc/9.3.1-2020q2-windows/bin/../lib/gcc/arm-none-eabi/9.3.1/../../../../arm-none-eabi/lib/thumb/v7-m/nofp\libc.a(lib_a-stdio.o)
                0x00088098                __sread
 .text.__swrite
                0x000880bc       0x40 c:/users/roxanne/desktop/programming/adkit/tools/arm-none-eabi-gcc/9.3.1-2020q2-windows/bin/../lib/gcc/arm-none-eabi/9.3.1/../../../../arm-none-eabi/lib/thumb/v7-m/nofp\libc.a(lib_a-stdio.o)
                0x000880bc                __swrite
 .text.__sseek  0x000880fc       0x20 c:/users/roxanne/desktop/programming/adkit/tools/arm-none-eabi-gcc/9.3.1-2020q2-windows/bin/../lib/gcc/arm-none-eabi/9.3.1/../../../../arm-none-eabi/lib/thumb/v7-m/nofp\libc.a(lib_a-stdio.o)
                0x000880fc                __sseek
 .text.__sclose
                0x0008811c        0x8 c:/users/roxanne/desktop/programming/adkit/tools/arm-none-eabi-gcc/9.3.1-2020q2-windows/bin/../lib/gcc/arm-none-eabi/9.3.1/../../../../arm-none-eabi/lib/thumb/v7-m/nofp\libc.a(lib_a-stdio.o)
                0x0008811c                __sclose
 .text.strncpy  0x00088124       0x68 c:/users/roxanne/desktop/programming/adkit/tools/arm-none-eabi-gcc/9.3.1-2020q2-windows/bin/../lib/gcc/arm-none-eabi/9.3.1/../../../../arm-none-eabi/lib/thumb/v7-m/nofp\libc.a(lib_a-strncpy.o)
                0x00088124                strncpy
 .text.__swbuf_r
                0x0008818c       0xb0 c:/users/roxanne/desktop/programming/adkit/tools/arm-none-eabi-gcc/9.3.1-2020q2-windows/bin/../lib/gcc/arm-none-eabi/9.3.1/../../../../arm-none-eabi/lib/thumb/v7-m/nofp\libc.a(lib_a-wbuf.o)
                0x0008818c                __swbuf_r
 .text._wcrtomb_r
                0x0008823c       0x3c c:/users/roxanne/desktop/programming/adkit/tools/arm-none-eabi-gcc/9.3.1-2020q2-windows/bin/../lib/gcc/arm-none-eabi/9.3.1/../../../../arm-none-eabi/lib/thumb/v7-m/nofp\libc.a(lib_a-wcrtomb.o)
                0x0008823c                _wcrtomb_r
 .text.__ascii_wctomb
                0x00088278       0x1c c:/users/roxanne/desktop/programming/adkit/tools/arm-none-eabi-gcc/9.3.1-2020q2-windows/bin/../lib/gcc/arm-none-eabi/9.3.1/../../../../arm-none-eabi/lib/thumb/v7-m/nofp\libc.a(lib_a-wctomb_r.o)
                0x00088278                __ascii_wctomb
 .text._write_r
                0x00088294       0x2c c:/users/roxanne/desktop/programming/adkit/tools/arm-none-eabi-gcc/9.3.1-2020q2-windows/bin/../lib/gcc/arm-none-eabi/9.3.1/../../../../arm-none-eabi/lib/thumb/v7-m/nofp\libc.a(lib_a-writer.o)
                0x00088294                _write_r
 .text.__register_exitproc
                0x000882c0       0x8c c:/users/roxanne/desktop/programming/adkit/tools/arm-none-eabi-gcc/9.3.1-2020q2-windows/bin/../lib/gcc/arm-none-eabi/9.3.1/../../../../arm-none-eabi/lib/thumb/v7-m/nofp\libc.a(lib_a-__atexit.o)
                0x000882c0                __register_exitproc
 .text._calloc_r
                0x0008834c       0x60 c:/users/roxanne/desktop/programming/adkit/tools/arm-none-eabi-gcc/9.3.1-2020q2-windows/bin/../lib/gcc/arm-none-eabi/9.3.1/../../../../arm-none-eabi/lib/thumb/v7-m/nofp\libc.a(lib_a-callocr.o)
                0x0008834c                _calloc_r
 .text._close_r
                0x000883ac       0x24 c:/users/roxanne/desktop/programming/adkit/tools/arm-none-eabi-gcc/9.3.1-2020q2-windows/bin/../lib/gcc/arm-none-eabi/9.3.1/../../../../arm-none-eabi/lib/thumb/v7-m/nofp\libc.a(lib_a-closer.o)
                0x000883ac                _close_r
 .text._fclose_r
                0x000883d0       0xcc c:/users/roxanne/desktop/programming/adkit/tools/arm-none-eabi-gcc/9.3.1-2020q2-windows/bin/../lib/gcc/arm-none-eabi/9.3.1/../../../../arm-none-eabi/lib/thumb/v7-m/nofp\libc.a(lib_a-fclose.o)
                0x000883d0                _fclose_r
 .text._fstat_r
                0x0008849c       0x2c c:/users/roxanne/desktop/programming/adkit/tools/arm-none-eabi-gcc/9.3.1-2020q2-windows/bin/../lib/gcc/arm-none-eabi/9.3.1/../../../../arm-none-eabi/lib/thumb/v7-m/nofp\libc.a(lib_a-fstatr.o)
                0x0008849c                _fstat_r
 .text._isatty_r
                0x000884c8       0x24 c:/users/roxanne/desktop/programming/adkit/tools/arm-none-eabi-gcc/9.3.1-2020q2-windows/bin/../lib/gcc/arm-none-eabi/9.3.1/../../../../arm-none-eabi/lib/thumb/v7-m/nofp\libc.a(lib_a-isattyr.o)
                0x000884c8                _isatty_r
 .text._lseek_r
                0x000884ec       0x2c c:/users/roxanne/desktop/programming/adkit/tools/arm-none-eabi-gcc/9.3.1-2020q2-windows/bin/../lib/gcc/arm-none-eabi/9.3.1/../../../../arm-none-eabi/lib/thumb/v7-m/nofp\libc.a(lib_a-lseekr.o)
                0x000884ec                _lseek_r
 .text._read_r  0x00088518       0x2c c:/users/roxanne/desktop/programming/adkit/tools/arm-none-eabi-gcc/9.3.1-2020q2-windows/bin/../lib/gcc/arm-none-eabi/9.3.1/../../../../arm-none-eabi/lib/thumb/v7-m/nofp\libc.a(lib_a-readr.o)
                0x00088518                _read_r
 .text          0x00088544       0x50 c:/users/roxanne/desktop/programming/adkit/tools/arm-none-eabi-gcc/9.3.1-2020q2-windows/bin/../lib/gcc/arm-none-eabi/9.3.1/thumb/v7-m/nofp\libgcc.a(_arm_fixdfsi.o)
                0x00088544                __aeabi_d2iz
                0x00088544                __fixdfsi
 .text          0x00088594       0x30 c:/users/roxanne/desktop/programming/adkit/tools/arm-none-eabi-gcc/9.3.1-2020q2-windows/bin/../lib/gcc/arm-none-eabi/9.3.1/thumb/v7-m/nofp\libgcc.a(_aeabi_uldivmod.o)
                0x00088594                __aeabi_uldivmod
 .text          0x000885c4      0x2c4 c:/users/roxanne/desktop/programming/adkit/tools/arm-none-eabi-gcc/9.3.1-2020q2-windows/bin/../lib/gcc/arm-none-eabi/9.3.1/thumb/v7-m/nofp\libgcc.a(_udivmoddi4.o)
                0x000885c4                __udivmoddi4
 .text          0x00088888        0x4 c:/users/roxanne/desktop/programming/adkit/tools/arm-none-eabi-gcc/9.3.1-2020q2-windows/bin/../lib/gcc/arm-none-eabi/9.3.1/thumb/v7-m/nofp\libgcc.a(_dvmd_tls.o)
                0x00088888                __aeabi_idiv0
                0x00088888                __aeabi_ldiv0
 *(.glue_7t)
 .glue_7t       0x0008888c        0x0 linker stubs
 *(.glue_7)
 .glue_7        0x0008888c        0x0 linker stubs
 *(.rodata .rodata* .gnu.linkonce.r.*)
 .rodata.main.str1.1
                0x0008888c       0x37 build/asciz.a(main.o)
 *fill*         0x000888c3        0x1 
 .rodata._ZTV9UARTClass
                0x000888c4       0x2c ../../lib/ArduinoCore-sam/out/sam.a(UARTClass.o)
                0x000888c4                vtable for UARTClass
 .rodata.g_APinDescription
                0x000888f0      0xa2c ../../lib/ArduinoCore-sam/out/sam.a(variant.o)
                0x000888f0                g_APinDescription
 .rodata._ZTV10USARTClass
                0x0008931c       0x2c ../../lib/ArduinoCore-sam/out/sam.a(USARTClass.o)
                0x0008931c                vtable for USARTClass
 .rodata        0x00089348       0x40 ../../lib/ArduinoCore-sam/variants/arduino_due_x/libsam_sam3x8e_gcc_rel.a(adc.o)
 .rodata.__assert_func.str1.4
                0x00089388       0x3f c:/users/roxanne/desktop/programming/adkit/tools/arm-none-eabi-gcc/9.3.1-2020q2-windows/bin/../lib/gcc/arm-none-eabi/9.3.1/../../../../arm-none-eabi/lib/thumb/v7-m/nofp\libc.a(lib_a-assert.o)
                                 0x43 (size before relaxing)
 *fill*         0x000893c7        0x1 
 .rodata._global_impure_ptr
                0x000893c8        0x4 c:/users/roxanne/desktop/programming/adkit/tools/arm-none-eabi-gcc/9.3.1-2020q2-windows/bin/../lib/gcc/arm-none-eabi/9.3.1/../../../../arm-none-eabi/lib/thumb/v7-m/nofp\libc.a(lib_a-impure.o)
                0x000893c8                _global_impure_ptr
 .rodata._vfiprintf_r.str1.4
                0x000893cc       0x2f c:/users/roxanne/desktop/programming/adkit/tools/arm-none-eabi-gcc/9.3.1-2020q2-windows/bin/../lib/gcc/arm-none-eabi/9.3.1/../../../../arm-none-eabi/lib/thumb/v7-m/nofp\libc.a(lib_a-vfiprintf.o)
 *fill*         0x000893fb        0x1 
 .rodata.blanks.7328
                0x000893fc       0x10 c:/users/roxanne/desktop/programming/adkit/tools/arm-none-eabi-gcc/9.3.1-2020q2-windows/bin/../lib/gcc/arm-none-eabi/9.3.1/../../../../arm-none-eabi/lib/thumb/v7-m/nofp\libc.a(lib_a-vfiprintf.o)
 .rodata.zeroes.7329
                0x0008940c       0x10 c:/users/roxanne/desktop/programming/adkit/tools/arm-none-eabi-gcc/9.3.1-2020q2-windows/bin/../lib/gcc/arm-none-eabi/9.3.1/../../../../arm-none-eabi/lib/thumb/v7-m/nofp\libc.a(lib_a-vfiprintf.o)
 .rodata._vfprintf_r.str1.4
                0x0008941c       0x12 c:/users/roxanne/desktop/programming/adkit/tools/arm-none-eabi-gcc/9.3.1-2020q2-windows/bin/../lib/gcc/arm-none-eabi/9.3.1/../../../../arm-none-eabi/lib/thumb/v7-m/nofp\libc.a(lib_a-vfprintf.o)
                                 0x42 (size before relaxing)
 *fill*         0x0008942e        0x2 
 .rodata.blanks.7350
                0x00089430       0x10 c:/users/roxanne/desktop/programming/adkit/tools/arm-none-eabi-gcc/9.3.1-2020q2-windows/bin/../lib/gcc/arm-none-eabi/9.3.1/../../../../arm-none-eabi/lib/thumb/v7-m/nofp\libc.a(lib_a-vfprintf.o)
 .rodata.zeroes.7351
                0x00089440       0x10 c:/users/roxanne/desktop/programming/adkit/tools/arm-none-eabi-gcc/9.3.1-2020q2-windows/bin/../lib/gcc/arm-none-eabi/9.3.1/../../../../arm-none-eabi/lib/thumb/v7-m/nofp\libc.a(lib_a-vfprintf.o)
 .rodata._dtoa_r.str1.4
                0x00089450       0xa0 c:/users/roxanne/desktop/programming/adkit/tools/arm-none-eabi-gcc/9.3.1-2020q2-windows/bin/../lib/gcc/arm-none-eabi/9.3.1/../../../../arm-none-eabi/lib/thumb/v7-m/nofp\libc.a(lib_a-dtoa.o)
                                 0xa4 (size before relaxing)
 .rodata._setlocale_r.str1.4
                0x000894f0        0xa c:/users/roxanne/desktop/programming/adkit/tools/arm-none-eabi-gcc/9.3.1-2020q2-windows/bin/../lib/gcc/arm-none-eabi/9.3.1/../../../../arm-none-eabi/lib/thumb/v7-m/nofp\libc.a(lib_a-locale.o)
                                  0xd (size before relaxing)
 *fill*         0x000894fa        0x2 
 .rodata.str1.4
                0x000894fc        0x2 c:/users/roxanne/desktop/programming/adkit/tools/arm-none-eabi-gcc/9.3.1-2020q2-windows/bin/../lib/gcc/arm-none-eabi/9.3.1/../../../../arm-none-eabi/lib/thumb/v7-m/nofp\libc.a(lib_a-locale.o)
 *fill*         0x000894fe        0x2 
 .rodata.__multadd.str1.4
                0x00089500       0x7d c:/users/roxanne/desktop/programming/adkit/tools/arm-none-eabi-gcc/9.3.1-2020q2-windows/bin/../lib/gcc/arm-none-eabi/9.3.1/../../../../arm-none-eabi/lib/thumb/v7-m/nofp\libc.a(lib_a-mprec.o)
                                 0x91 (size before relaxing)
 *fill*         0x0008957d        0x3 
 .rodata.__mprec_bigtens
                0x00089580       0x28 c:/users/roxanne/desktop/programming/adkit/tools/arm-none-eabi-gcc/9.3.1-2020q2-windows/bin/../lib/gcc/arm-none-eabi/9.3.1/../../../../arm-none-eabi/lib/thumb/v7-m/nofp\libc.a(lib_a-mprec.o)
                0x00089580                __mprec_bigtens
 .rodata.__mprec_tens
                0x000895a8       0xc8 c:/users/roxanne/desktop/programming/adkit/tools/arm-none-eabi-gcc/9.3.1-2020q2-windows/bin/../lib/gcc/arm-none-eabi/9.3.1/../../../../arm-none-eabi/lib/thumb/v7-m/nofp\libc.a(lib_a-mprec.o)
                0x000895a8                __mprec_tens
 .rodata.p05.6122
                0x00089670        0xc c:/users/roxanne/desktop/programming/adkit/tools/arm-none-eabi-gcc/9.3.1-2020q2-windows/bin/../lib/gcc/arm-none-eabi/9.3.1/../../../../arm-none-eabi/lib/thumb/v7-m/nofp\libc.a(lib_a-mprec.o)
 .rodata._ctype_
                0x0008967c      0x101 c:/users/roxanne/desktop/programming/adkit/tools/arm-none-eabi-gcc/9.3.1-2020q2-windows/bin/../lib/gcc/arm-none-eabi/9.3.1/../../../../arm-none-eabi/lib/thumb/v7-m/nofp\libc.a(lib_a-ctype_.o)
                0x0008967c                _ctype_
 *(.ARM.extab* .gnu.linkonce.armextab.*)
 *fill*         0x0008977d        0x3 
 .ARM.extab     0x00089780       0x18 c:/users/roxanne/desktop/programming/adkit/tools/arm-none-eabi-gcc/9.3.1-2020q2-windows/bin/../lib/gcc/arm-none-eabi/9.3.1/thumb/v7-m/nofp\libgcc.a(pr-support.o)
                0x00089798                . = ALIGN (0x4)
 *(.init)
 .init          0x00089798        0x4 c:/users/roxanne/desktop/programming/adkit/tools/arm-none-eabi-gcc/9.3.1-2020q2-windows/bin/../lib/gcc/arm-none-eabi/9.3.1/thumb/v7-m/nofp/crti.o
                0x00089798                _init
 .init          0x0008979c        0x8 c:/users/roxanne/desktop/programming/adkit/tools/arm-none-eabi-gcc/9.3.1-2020q2-windows/bin/../lib/gcc/arm-none-eabi/9.3.1/thumb/v7-m/nofp/crtn.o
                0x000897a4                . = ALIGN (0x4)
                0x000897a4                __preinit_array_start = .
 *(.preinit_array)
                0x000897a4                __preinit_array_end = .
                0x000897a4                . = ALIGN (0x4)
                0x000897a4                __init_array_start = .
 *(SORT_BY_NAME(.init_array.*))
 .init_array.00000
                0x000897a4        0x4 c:/users/roxanne/desktop/programming/adkit/tools/arm-none-eabi-gcc/9.3.1-2020q2-windows/bin/../lib/gcc/arm-none-eabi/9.3.1/../../../../arm-none-eabi/lib/thumb/v7-m/nofp\libc.a(lib_a-__call_atexit.o)
 *(.init_array)
 .init_array    0x000897a8        0x4 c:/users/roxanne/desktop/programming/adkit/tools/arm-none-eabi-gcc/9.3.1-2020q2-windows/bin/../lib/gcc/arm-none-eabi/9.3.1/thumb/v7-m/nofp/crtbegin.o
 .init_array    0x000897ac        0x4 ../../lib/ArduinoCore-sam/out/sam.a(variant.o)
                0x000897b0                __init_array_end = .
                0x000897b0                . = ALIGN (0x4)
 *crtbegin.o(.ctors)
 *(EXCLUDE_FILE(*crtend.o) .ctors)
 *(SORT_BY_NAME(.ctors.*))
 *crtend.o(.ctors)
                0x000897b0                . = ALIGN (0x4)
 *(.fini)
 .fini          0x000897b0        0x4 c:/users/roxanne/desktop/programming/adkit/tools/arm-none-eabi-gcc/9.3.1-2020q2-windows/bin/../lib/gcc/arm-none-eabi/9.3.1/thumb/v7-m/nofp/crti.o
                0x000897b0                _fini
 .fini          0x000897b4        0x8 c:/users/roxanne/desktop/programming/adkit/tools/arm-none-eabi-gcc/9.3.1-2020q2-windows/bin/../lib/gcc/arm-none-eabi/9.3.1/thumb/v7-m/nofp/crtn.o
                0x000897bc                . = ALIGN (0x4)
                0x000897bc                __fini_array_start = .
 *(.fini_array)
 .fini_array    0x000897bc        0x4 c:/users/roxanne/desktop/programming/adkit/tools/arm-none-eabi-gcc/9.3.1-2020q2-windows/bin/../lib/gcc/arm-none-eabi/9.3.1/thumb/v7-m/nofp/crtbegin.o
 *(SORT_BY_NAME(.fini_array.*))
                0x000897c0                __fini_array_end = .
 *crtbegin.o(.dtors)
 *(EXCLUDE_FILE(*crtend.o) .dtors)
 *(SORT_BY_NAME(.dtors.*))
 *crtend.o(.dtors)
                0x000897c0                . = ALIGN (0x4)
                0x000897c0                _efixed = .
                0x000897c0                PROVIDE (__exidx_start = .)

.vfp11_veneer   0x000897c0        0x0
 .vfp11_veneer  0x000897c0        0x0 linker stubs

.v4_bx          0x000897c0        0x0
 .v4_bx         0x000897c0        0x0 linker stubs

.iplt           0x000897c0        0x0
 .iplt          0x000897c0        0x0 c:/users/roxanne/desktop/programming/adkit/tools/arm-none-eabi-gcc/9.3.1-2020q2-windows/bin/../lib/gcc/arm-none-eabi/9.3.1/thumb/v7-m/nofp/crtbegin.o

.igot.plt       0x000897c0        0x0
 .igot.plt      0x000897c0        0x0 c:/users/roxanne/desktop/programming/adkit/tools/arm-none-eabi-gcc/9.3.1-2020q2-windows/bin/../lib/gcc/arm-none-eabi/9.3.1/thumb/v7-m/nofp/crtbegin.o

.ARM.exidx      0x000897c0       0xc8
 *(.ARM.exidx* .gnu.linkonce.armexidx.*)
 .ARM.exidx.text.startup.main
                0x000897c0        0x8 build/asciz.a(main.o)
 .ARM.exidx.text.print_asciz
                0x000897c8        0x8 build/asciz.a(print_asciz.o)
 .ARM.exidx.text.toggle_asciz
                0x000897d0        0x8 build/asciz.a(toggle_asciz.o)
 .ARM.exidx     0x000897d8       0x78 c:/users/roxanne/desktop/programming/adkit/tools/arm-none-eabi-gcc/9.3.1-2020q2-windows/bin/../lib/gcc/arm-none-eabi/9.3.1/thumb/v7-m/nofp\libgcc.a(unwind-arm.o)
                                 0xd8 (size before relaxing)
 .ARM.exidx     0x00089850       0x38 c:/users/roxanne/desktop/programming/adkit/tools/arm-none-eabi-gcc/9.3.1-2020q2-windows/bin/../lib/gcc/arm-none-eabi/9.3.1/thumb/v7-m/nofp\libgcc.a(pr-support.o)
 .ARM.exidx     0x00089888        0x0 c:/users/roxanne/desktop/programming/adkit/tools/arm-none-eabi-gcc/9.3.1-2020q2-windows/bin/../lib/gcc/arm-none-eabi/9.3.1/thumb/v7-m/nofp\libgcc.a(_udivmoddi4.o)
                                  0x8 (size before relaxing)
                0x00089888                PROVIDE (__exidx_end = .)

.eh_frame       0x00089888        0x0
 .eh_frame      0x00089888        0x0 c:/users/roxanne/desktop/programming/adkit/tools/arm-none-eabi-gcc/9.3.1-2020q2-windows/bin/../lib/gcc/arm-none-eabi/9.3.1/thumb/v7-m/nofp/crtbegin.o

.rel.dyn        0x00089888        0x0
 .rel.iplt      0x00089888        0x0 c:/users/roxanne/desktop/programming/adkit/tools/arm-none-eabi-gcc/9.3.1-2020q2-windows/bin/../lib/gcc/arm-none-eabi/9.3.1/thumb/v7-m/nofp/crtbegin.o
                0x00089888                . = ALIGN (0x4)
                0x00089888                _etext = .

.relocate       0x20070000      0x9e8 load address 0x00089888
                0x20070000                . = ALIGN (0x4)
                0x20070000                _srelocate = .
 *(.ramfunc .ramfunc.*)
 .ramfunc       0x20070000       0x30 ../../lib/ArduinoCore-sam/out/sam.a(Reset.o)
                0x20070000                banzai
 *(.data .data.*)
 .data._ZL5ticks
                0x20070030        0x4 ../../lib/ArduinoCore-sam/out/sam.a(Reset.o)
 .data.SystemCoreClock
                0x20070034        0x4 ../../lib/ArduinoCore-sam/variants/arduino_due_x/libsam_sam3x8e_gcc_rel.a(system_sam3xa.o)
                0x20070034                SystemCoreClock
 .data._impure_ptr
                0x20070038        0x4 c:/users/roxanne/desktop/programming/adkit/tools/arm-none-eabi-gcc/9.3.1-2020q2-windows/bin/../lib/gcc/arm-none-eabi/9.3.1/../../../../arm-none-eabi/lib/thumb/v7-m/nofp\libc.a(lib_a-impure.o)
                0x20070038                _impure_ptr
 *fill*         0x2007003c        0x4 
 .data.impure_data
                0x20070040      0x428 c:/users/roxanne/desktop/programming/adkit/tools/arm-none-eabi-gcc/9.3.1-2020q2-windows/bin/../lib/gcc/arm-none-eabi/9.3.1/../../../../arm-none-eabi/lib/thumb/v7-m/nofp\libc.a(lib_a-impure.o)
 .data.__atexit_recursive_mutex
                0x20070468        0x4 c:/users/roxanne/desktop/programming/adkit/tools/arm-none-eabi-gcc/9.3.1-2020q2-windows/bin/../lib/gcc/arm-none-eabi/9.3.1/../../../../arm-none-eabi/lib/thumb/v7-m/nofp\libc.a(lib_a-__call_atexit.o)
                0x20070468                __atexit_recursive_mutex
 .data.__global_locale
                0x2007046c      0x16c c:/users/roxanne/desktop/programming/adkit/tools/arm-none-eabi-gcc/9.3.1-2020q2-windows/bin/../lib/gcc/arm-none-eabi/9.3.1/../../../../arm-none-eabi/lib/thumb/v7-m/nofp\libc.a(lib_a-locale.o)
                0x2007046c                __global_locale
 .data.__malloc_av_
                0x200705d8      0x408 c:/users/roxanne/desktop/programming/adkit/tools/arm-none-eabi-gcc/9.3.1-2020q2-windows/bin/../lib/gcc/arm-none-eabi/9.3.1/../../../../arm-none-eabi/lib/thumb/v7-m/nofp\libc.a(lib_a-mallocr.o)
                0x200705d8                __malloc_av_
 .data.__malloc_sbrk_base
                0x200709e0        0x4 c:/users/roxanne/desktop/programming/adkit/tools/arm-none-eabi-gcc/9.3.1-2020q2-windows/bin/../lib/gcc/arm-none-eabi/9.3.1/../../../../arm-none-eabi/lib/thumb/v7-m/nofp\libc.a(lib_a-mallocr.o)
                0x200709e0                __malloc_sbrk_base
 .data.__malloc_trim_threshold
                0x200709e4        0x4 c:/users/roxanne/desktop/programming/adkit/tools/arm-none-eabi-gcc/9.3.1-2020q2-windows/bin/../lib/gcc/arm-none-eabi/9.3.1/../../../../arm-none-eabi/lib/thumb/v7-m/nofp\libc.a(lib_a-mallocr.o)
                0x200709e4                __malloc_trim_threshold
                0x200709e8                . = ALIGN (0x4)
                0x200709e8                _erelocate = .

.bss            0x200709e8      0x5b0 load address 0x0008a270
                0x200709e8                . = ALIGN (0x4)
                0x200709e8                _sbss = .
                0x200709e8                _szero = .
 *(.bss .bss.*)
 .bss           0x200709e8       0x1c c:/users/roxanne/desktop/programming/adkit/tools/arm-none-eabi-gcc/9.3.1-2020q2-windows/bin/../lib/gcc/arm-none-eabi/9.3.1/thumb/v7-m/nofp/crtbegin.o
 .bss.heap.6674
                0x20070a04        0x4 ../../lib/ArduinoCore-sam/out/sam.a(syscalls_sam3.o)
 .bss.gpf_isr   0x20070a08        0x4 ../../lib/ArduinoCore-sam/variants/arduino_due_x/libsam_sam3x8e_gcc_rel.a(uotghs.o)
                0x20070a08                gpf_isr
 .bss.Serial    0x20070a0c       0x24 ../../lib/ArduinoCore-sam/out/sam.a(variant.o)
                0x20070a0c                Serial
 .bss.Serial1   0x20070a30       0x28 ../../lib/ArduinoCore-sam/out/sam.a(variant.o)
                0x20070a30                Serial1
 .bss.Serial2   0x20070a58       0x28 ../../lib/ArduinoCore-sam/out/sam.a(variant.o)
                0x20070a58                Serial2
 .bss.Serial3   0x20070a80       0x28 ../../lib/ArduinoCore-sam/out/sam.a(variant.o)
                0x20070a80                Serial3
 .bss.g_pinStatus
                0x20070aa8       0x4f ../../lib/ArduinoCore-sam/out/sam.a(variant.o)
                0x20070aa8                g_pinStatus
 *fill*         0x20070af7        0x1 
 .bss.rx_buffer1
                0x20070af8       0x88 ../../lib/ArduinoCore-sam/out/sam.a(variant.o)
                0x20070af8                rx_buffer1
 .bss.rx_buffer2
                0x20070b80       0x88 ../../lib/ArduinoCore-sam/out/sam.a(variant.o)
                0x20070b80                rx_buffer2
 .bss.rx_buffer3
                0x20070c08       0x88 ../../lib/ArduinoCore-sam/out/sam.a(variant.o)
                0x20070c08                rx_buffer3
 .bss.rx_buffer4
                0x20070c90       0x88 ../../lib/ArduinoCore-sam/out/sam.a(variant.o)
                0x20070c90                rx_buffer4
 .bss.tx_buffer1
                0x20070d18       0x88 ../../lib/ArduinoCore-sam/out/sam.a(variant.o)
                0x20070d18                tx_buffer1
 .bss.tx_buffer2
                0x20070da0       0x88 ../../lib/ArduinoCore-sam/out/sam.a(variant.o)
                0x20070da0                tx_buffer2
 .bss.tx_buffer3
                0x20070e28       0x88 ../../lib/ArduinoCore-sam/out/sam.a(variant.o)
                0x20070e28                tx_buffer3
 .bss.tx_buffer4
                0x20070eb0       0x88 ../../lib/ArduinoCore-sam/out/sam.a(variant.o)
                0x20070eb0                tx_buffer4
 .bss._dwTickCount
                0x20070f38        0x4 ../../lib/ArduinoCore-sam/variants/arduino_due_x/libsam_sam3x8e_gcc_rel.a(timetick.o)
 .bss.__malloc_current_mallinfo
                0x20070f3c       0x28 c:/users/roxanne/desktop/programming/adkit/tools/arm-none-eabi-gcc/9.3.1-2020q2-windows/bin/../lib/gcc/arm-none-eabi/9.3.1/../../../../arm-none-eabi/lib/thumb/v7-m/nofp\libc.a(lib_a-mallocr.o)
                0x20070f3c                __malloc_current_mallinfo
 .bss.__malloc_max_sbrked_mem
                0x20070f64        0x4 c:/users/roxanne/desktop/programming/adkit/tools/arm-none-eabi-gcc/9.3.1-2020q2-windows/bin/../lib/gcc/arm-none-eabi/9.3.1/../../../../arm-none-eabi/lib/thumb/v7-m/nofp\libc.a(lib_a-mallocr.o)
                0x20070f64                __malloc_max_sbrked_mem
 .bss.__malloc_max_total_mem
                0x20070f68        0x4 c:/users/roxanne/desktop/programming/adkit/tools/arm-none-eabi-gcc/9.3.1-2020q2-windows/bin/../lib/gcc/arm-none-eabi/9.3.1/../../../../arm-none-eabi/lib/thumb/v7-m/nofp\libc.a(lib_a-mallocr.o)
                0x20070f68                __malloc_max_total_mem
 .bss.__malloc_top_pad
                0x20070f6c        0x4 c:/users/roxanne/desktop/programming/adkit/tools/arm-none-eabi-gcc/9.3.1-2020q2-windows/bin/../lib/gcc/arm-none-eabi/9.3.1/../../../../arm-none-eabi/lib/thumb/v7-m/nofp\libc.a(lib_a-mallocr.o)
                0x20070f6c                __malloc_top_pad
 *(COMMON)
 COMMON         0x20070f70       0x21 c:/users/roxanne/desktop/programming/adkit/tools/arm-none-eabi-gcc/9.3.1-2020q2-windows/bin/../lib/gcc/arm-none-eabi/9.3.1/../../../../arm-none-eabi/lib/thumb/v7-m/nofp\libc.a(lib_a-lock.o)
                0x20070f70                __lock___atexit_recursive_mutex
                0x20070f74                __lock___arc4random_mutex
                0x20070f78                __lock___env_recursive_mutex
                0x20070f7c                __lock___sinit_recursive_mutex
                0x20070f80                __lock___malloc_recursive_mutex
                0x20070f84                __lock___at_quick_exit_mutex
                0x20070f88                __lock___dd_hash_mutex
                0x20070f8c                __lock___tz_mutex
                0x20070f90                __lock___sfp_recursive_mutex
 *fill*         0x20070f91        0x3 
 COMMON         0x20070f94        0x4 c:/users/roxanne/desktop/programming/adkit/tools/arm-none-eabi-gcc/9.3.1-2020q2-windows/bin/../lib/gcc/arm-none-eabi/9.3.1/../../../../arm-none-eabi/lib/thumb/v7-m/nofp\libc.a(lib_a-reent.o)
                0x20070f94                errno
                0x20070f98                . = ALIGN (0x4)
                0x20070f98                _ebss = .
                0x20070f98                _ezero = .
                0x20070f98                . = ALIGN (0x4)
                0x20070f98                _end = .

.stack_dummy    0x20070f98        0x0
 *(.stack*)
                0x20088000                __StackTop = (ORIGIN (ram) + LENGTH (ram))
                0x20088000                __StackLimit = (__StackTop - SIZEOF (.stack_dummy))
                [!provide]                PROVIDE (_sstack = __StackLimit)
                0x20088000                PROVIDE (_estack = __StackTop)
OUTPUT(out/asciz.elf elf32-littlearm)
LOAD linker stubs

.ARM.attributes
                0x00000000       0x29
 .ARM.attributes
                0x00000000       0x1d c:/users/roxanne/desktop/programming/adkit/tools/arm-none-eabi-gcc/9.3.1-2020q2-windows/bin/../lib/gcc/arm-none-eabi/9.3.1/thumb/v7-m/nofp/crti.o
 .ARM.attributes
                0x0000001d       0x2d c:/users/roxanne/desktop/programming/adkit/tools/arm-none-eabi-gcc/9.3.1-2020q2-windows/bin/../lib/gcc/arm-none-eabi/9.3.1/thumb/v7-m/nofp/crtbegin.o
 .ARM.attributes
                0x0000004a       0x2d ../../lib/ArduinoCore-sam/out/sam.a(syscalls_sam3.o)
 .ARM.attributes
                0x00000077       0x33 ../../lib/ArduinoCore-sam/variants/arduino_due_x/libsam_sam3x8e_gcc_rel.a(startup_sam3xa.o)
 .ARM.attributes
                0x000000aa       0x33 ../../lib/ArduinoCore-sam/variants/arduino_due_x/libsam_sam3x8e_gcc_rel.a(uotghs.o)
 .ARM.attributes
                0x000000dd       0x2d build/asciz.a(main.o)
 .ARM.attributes
                0x0000010a       0x2d build/asciz.a(print_asciz.o)
 .ARM.attributes
                0x00000137       0x2d build/asciz.a(toggle_asciz.o)
 .ARM.attributes
                0x00000164       0x21 build/asciz.a(application.o)
 .ARM.attributes
                0x00000185       0x21 build/asciz.a(print_asciz_asm.o)
 .ARM.attributes
                0x000001a6       0x21 build/asciz.a(toggle_asciz_asm.o)
 .ARM.attributes
                0x000001c7       0x2d ../../lib/ArduinoCore-sam/out/sam.a(RingBuffer.o)
 .ARM.attributes
                0x000001f4       0x2d ../../lib/ArduinoCore-sam/out/sam.a(UARTClass.o)
 .ARM.attributes
                0x00000221       0x2d ../../lib/ArduinoCore-sam/out/sam.a(watchdog.o)
 .ARM.attributes
                0x0000024e       0x2d ../../lib/ArduinoCore-sam/out/sam.a(cortex_handlers.o)
 .ARM.attributes
                0x0000027b       0x2d ../../lib/ArduinoCore-sam/out/sam.a(hooks.o)
 .ARM.attributes
                0x000002a8       0x2d ../../lib/ArduinoCore-sam/out/sam.a(wiring.o)
 .ARM.attributes
                0x000002d5       0x2d ../../lib/ArduinoCore-sam/out/sam.a(variant.o)
 .ARM.attributes
                0x00000302       0x2d ../../lib/ArduinoCore-sam/out/sam.a(Print.o)
 .ARM.attributes
                0x0000032f       0x2d ../../lib/ArduinoCore-sam/out/sam.a(Reset.o)
 .ARM.attributes
                0x0000035c       0x2d ../../lib/ArduinoCore-sam/out/sam.a(USARTClass.o)
 .ARM.attributes
                0x00000389       0x2d ../../lib/ArduinoCore-sam/out/sam.a(wiring_analog.o)
 .ARM.attributes
                0x000003b6       0x2d ../../lib/ArduinoCore-sam/out/sam.a(wiring_digital.o)
 .ARM.attributes
                0x000003e3       0x33 ../../lib/ArduinoCore-sam/variants/arduino_due_x/libsam_sam3x8e_gcc_rel.a(pio.o)
 .ARM.attributes
                0x00000416       0x33 ../../lib/ArduinoCore-sam/variants/arduino_due_x/libsam_sam3x8e_gcc_rel.a(pmc.o)
 .ARM.attributes
                0x00000449       0x33 ../../lib/ArduinoCore-sam/variants/arduino_due_x/libsam_sam3x8e_gcc_rel.a(timetick.o)
 .ARM.attributes
                0x0000047c       0x33 ../../lib/ArduinoCore-sam/variants/arduino_due_x/libsam_sam3x8e_gcc_rel.a(wdt.o)
 .ARM.attributes
                0x000004af       0x33 ../../lib/ArduinoCore-sam/variants/arduino_due_x/libsam_sam3x8e_gcc_rel.a(system_sam3xa.o)
 .ARM.attributes
                0x000004e2       0x33 ../../lib/ArduinoCore-sam/variants/arduino_due_x/libsam_sam3x8e_gcc_rel.a(adc.o)
 .ARM.attributes
                0x00000515       0x1d c:/users/roxanne/desktop/programming/adkit/tools/arm-none-eabi-gcc/9.3.1-2020q2-windows/bin/../lib/gcc/arm-none-eabi/9.3.1/thumb/v7-m/nofp\libgcc.a(_arm_addsubdf3.o)
 .ARM.attributes
                0x00000532       0x1d c:/users/roxanne/desktop/programming/adkit/tools/arm-none-eabi-gcc/9.3.1-2020q2-windows/bin/../lib/gcc/arm-none-eabi/9.3.1/thumb/v7-m/nofp\libgcc.a(_arm_muldivdf3.o)
 .ARM.attributes
                0x0000054f       0x1d c:/users/roxanne/desktop/programming/adkit/tools/arm-none-eabi-gcc/9.3.1-2020q2-windows/bin/../lib/gcc/arm-none-eabi/9.3.1/thumb/v7-m/nofp\libgcc.a(_arm_cmpdf2.o)
 .ARM.attributes
                0x0000056c       0x1d c:/users/roxanne/desktop/programming/adkit/tools/arm-none-eabi-gcc/9.3.1-2020q2-windows/bin/../lib/gcc/arm-none-eabi/9.3.1/thumb/v7-m/nofp\libgcc.a(_arm_unorddf2.o)
 .ARM.attributes
                0x00000589       0x2d c:/users/roxanne/desktop/programming/adkit/tools/arm-none-eabi-gcc/9.3.1-2020q2-windows/bin/../lib/gcc/arm-none-eabi/9.3.1/../../../../arm-none-eabi/lib/thumb/v7-m/nofp\libc.a(lib_a-abort.o)
 .ARM.attributes
                0x000005b6       0x2d c:/users/roxanne/desktop/programming/adkit/tools/arm-none-eabi-gcc/9.3.1-2020q2-windows/bin/../lib/gcc/arm-none-eabi/9.3.1/../../../../arm-none-eabi/lib/thumb/v7-m/nofp\libc.a(lib_a-assert.o)
 .ARM.attributes
                0x000005e3       0x2d c:/users/roxanne/desktop/programming/adkit/tools/arm-none-eabi-gcc/9.3.1-2020q2-windows/bin/../lib/gcc/arm-none-eabi/9.3.1/../../../../arm-none-eabi/lib/thumb/v7-m/nofp\libc.a(lib_a-fiprintf.o)
 .ARM.attributes
                0x00000610       0x2d c:/users/roxanne/desktop/programming/adkit/tools/arm-none-eabi-gcc/9.3.1-2020q2-windows/bin/../lib/gcc/arm-none-eabi/9.3.1/../../../../arm-none-eabi/lib/thumb/v7-m/nofp\libc.a(lib_a-impure.o)
 .ARM.attributes
                0x0000063d       0x2d c:/users/roxanne/desktop/programming/adkit/tools/arm-none-eabi-gcc/9.3.1-2020q2-windows/bin/../lib/gcc/arm-none-eabi/9.3.1/../../../../arm-none-eabi/lib/thumb/v7-m/nofp\libc.a(lib_a-init.o)
 .ARM.attributes
                0x0000066a       0x1b c:/users/roxanne/desktop/programming/adkit/tools/arm-none-eabi-gcc/9.3.1-2020q2-windows/bin/../lib/gcc/arm-none-eabi/9.3.1/../../../../arm-none-eabi/lib/thumb/v7-m/nofp\libc.a(lib_a-memcpy.o)
 .ARM.attributes
                0x00000685       0x2d c:/users/roxanne/desktop/programming/adkit/tools/arm-none-eabi-gcc/9.3.1-2020q2-windows/bin/../lib/gcc/arm-none-eabi/9.3.1/../../../../arm-none-eabi/lib/thumb/v7-m/nofp\libc.a(lib_a-memset.o)
 .ARM.attributes
                0x000006b2       0x2d c:/users/roxanne/desktop/programming/adkit/tools/arm-none-eabi-gcc/9.3.1-2020q2-windows/bin/../lib/gcc/arm-none-eabi/9.3.1/../../../../arm-none-eabi/lib/thumb/v7-m/nofp\libc.a(lib_a-printf.o)
 .ARM.attributes
                0x000006df       0x2d c:/users/roxanne/desktop/programming/adkit/tools/arm-none-eabi-gcc/9.3.1-2020q2-windows/bin/../lib/gcc/arm-none-eabi/9.3.1/../../../../arm-none-eabi/lib/thumb/v7-m/nofp\libc.a(lib_a-putchar.o)
 .ARM.attributes
                0x0000070c       0x2d c:/users/roxanne/desktop/programming/adkit/tools/arm-none-eabi-gcc/9.3.1-2020q2-windows/bin/../lib/gcc/arm-none-eabi/9.3.1/../../../../arm-none-eabi/lib/thumb/v7-m/nofp\libc.a(lib_a-signal.o)
 .ARM.attributes
                0x00000739       0x2d c:/users/roxanne/desktop/programming/adkit/tools/arm-none-eabi-gcc/9.3.1-2020q2-windows/bin/../lib/gcc/arm-none-eabi/9.3.1/../../../../arm-none-eabi/lib/thumb/v7-m/nofp\libc.a(lib_a-signalr.o)
 .ARM.attributes
                0x00000766       0x2d c:/users/roxanne/desktop/programming/adkit/tools/arm-none-eabi-gcc/9.3.1-2020q2-windows/bin/../lib/gcc/arm-none-eabi/9.3.1/../../../../arm-none-eabi/lib/thumb/v7-m/nofp\libc.a(lib_a-strlen-stub.o)
 .ARM.attributes
                0x00000793       0x2d c:/users/roxanne/desktop/programming/adkit/tools/arm-none-eabi-gcc/9.3.1-2020q2-windows/bin/../lib/gcc/arm-none-eabi/9.3.1/../../../../arm-none-eabi/lib/thumb/v7-m/nofp\libc.a(lib_a-syskill.o)
 .ARM.attributes
                0x000007c0       0x2d c:/users/roxanne/desktop/programming/adkit/tools/arm-none-eabi-gcc/9.3.1-2020q2-windows/bin/../lib/gcc/arm-none-eabi/9.3.1/../../../../arm-none-eabi/lib/thumb/v7-m/nofp\libc.a(lib_a-vfiprintf.o)
 .ARM.attributes
                0x000007ed       0x2d c:/users/roxanne/desktop/programming/adkit/tools/arm-none-eabi-gcc/9.3.1-2020q2-windows/bin/../lib/gcc/arm-none-eabi/9.3.1/../../../../arm-none-eabi/lib/thumb/v7-m/nofp\libc.a(lib_a-vfprintf.o)
 .ARM.attributes
                0x0000081a       0x2d c:/users/roxanne/desktop/programming/adkit/tools/arm-none-eabi-gcc/9.3.1-2020q2-windows/bin/../lib/gcc/arm-none-eabi/9.3.1/../../../../arm-none-eabi/lib/thumb/v7-m/nofp\libc.a(lib_a-wsetup.o)
 .ARM.attributes
                0x00000847       0x2d c:/users/roxanne/desktop/programming/adkit/tools/arm-none-eabi-gcc/9.3.1-2020q2-windows/bin/../lib/gcc/arm-none-eabi/9.3.1/../../../../arm-none-eabi/lib/thumb/v7-m/nofp\libc.a(lib_a-__call_atexit.o)
 .ARM.attributes
                0x00000874       0x2d c:/users/roxanne/desktop/programming/adkit/tools/arm-none-eabi-gcc/9.3.1-2020q2-windows/bin/../lib/gcc/arm-none-eabi/9.3.1/../../../../arm-none-eabi/lib/thumb/v7-m/nofp\libc.a(lib_a-atexit.o)
 .ARM.attributes
                0x000008a1       0x2d c:/users/roxanne/desktop/programming/adkit/tools/arm-none-eabi-gcc/9.3.1-2020q2-windows/bin/../lib/gcc/arm-none-eabi/9.3.1/../../../../arm-none-eabi/lib/thumb/v7-m/nofp\libc.a(lib_a-dtoa.o)
 .ARM.attributes
                0x000008ce       0x2d c:/users/roxanne/desktop/programming/adkit/tools/arm-none-eabi-gcc/9.3.1-2020q2-windows/bin/../lib/gcc/arm-none-eabi/9.3.1/../../../../arm-none-eabi/lib/thumb/v7-m/nofp\libc.a(lib_a-fflush.o)
 .ARM.attributes
                0x000008fb       0x2d c:/users/roxanne/desktop/programming/adkit/tools/arm-none-eabi-gcc/9.3.1-2020q2-windows/bin/../lib/gcc/arm-none-eabi/9.3.1/../../../../arm-none-eabi/lib/thumb/v7-m/nofp\libc.a(lib_a-findfp.o)
 .ARM.attributes
                0x00000928       0x2d c:/users/roxanne/desktop/programming/adkit/tools/arm-none-eabi-gcc/9.3.1-2020q2-windows/bin/../lib/gcc/arm-none-eabi/9.3.1/../../../../arm-none-eabi/lib/thumb/v7-m/nofp\libc.a(lib_a-fini.o)
 .ARM.attributes
                0x00000955       0x2d c:/users/roxanne/desktop/programming/adkit/tools/arm-none-eabi-gcc/9.3.1-2020q2-windows/bin/../lib/gcc/arm-none-eabi/9.3.1/../../../../arm-none-eabi/lib/thumb/v7-m/nofp\libc.a(lib_a-fputwc.o)
 .ARM.attributes
                0x00000982       0x2d c:/users/roxanne/desktop/programming/adkit/tools/arm-none-eabi-gcc/9.3.1-2020q2-windows/bin/../lib/gcc/arm-none-eabi/9.3.1/../../../../arm-none-eabi/lib/thumb/v7-m/nofp\libc.a(lib_a-freer.o)
 .ARM.attributes
                0x000009af       0x2d c:/users/roxanne/desktop/programming/adkit/tools/arm-none-eabi-gcc/9.3.1-2020q2-windows/bin/../lib/gcc/arm-none-eabi/9.3.1/../../../../arm-none-eabi/lib/thumb/v7-m/nofp\libc.a(lib_a-fvwrite.o)
 .ARM.attributes
                0x000009dc       0x2d c:/users/roxanne/desktop/programming/adkit/tools/arm-none-eabi-gcc/9.3.1-2020q2-windows/bin/../lib/gcc/arm-none-eabi/9.3.1/../../../../arm-none-eabi/lib/thumb/v7-m/nofp\libc.a(lib_a-fwalk.o)
 .ARM.attributes
                0x00000a09       0x2d c:/users/roxanne/desktop/programming/adkit/tools/arm-none-eabi-gcc/9.3.1-2020q2-windows/bin/../lib/gcc/arm-none-eabi/9.3.1/../../../../arm-none-eabi/lib/thumb/v7-m/nofp\libc.a(lib_a-locale.o)
 .ARM.attributes
                0x00000a36       0x2d c:/users/roxanne/desktop/programming/adkit/tools/arm-none-eabi-gcc/9.3.1-2020q2-windows/bin/../lib/gcc/arm-none-eabi/9.3.1/../../../../arm-none-eabi/lib/thumb/v7-m/nofp\libc.a(lib_a-localeconv.o)
 .ARM.attributes
                0x00000a63       0x2d c:/users/roxanne/desktop/programming/adkit/tools/arm-none-eabi-gcc/9.3.1-2020q2-windows/bin/../lib/gcc/arm-none-eabi/9.3.1/../../../../arm-none-eabi/lib/thumb/v7-m/nofp\libc.a(lib_a-lock.o)
 .ARM.attributes
                0x00000a90       0x2d c:/users/roxanne/desktop/programming/adkit/tools/arm-none-eabi-gcc/9.3.1-2020q2-windows/bin/../lib/gcc/arm-none-eabi/9.3.1/../../../../arm-none-eabi/lib/thumb/v7-m/nofp\libc.a(lib_a-makebuf.o)
 .ARM.attributes
                0x00000abd       0x2d c:/users/roxanne/desktop/programming/adkit/tools/arm-none-eabi-gcc/9.3.1-2020q2-windows/bin/../lib/gcc/arm-none-eabi/9.3.1/../../../../arm-none-eabi/lib/thumb/v7-m/nofp\libc.a(lib_a-mallocr.o)
 .ARM.attributes
                0x00000aea       0x2d c:/users/roxanne/desktop/programming/adkit/tools/arm-none-eabi-gcc/9.3.1-2020q2-windows/bin/../lib/gcc/arm-none-eabi/9.3.1/../../../../arm-none-eabi/lib/thumb/v7-m/nofp\libc.a(lib_a-mbtowc_r.o)
 .ARM.attributes
                0x00000b17       0x2d c:/users/roxanne/desktop/programming/adkit/tools/arm-none-eabi-gcc/9.3.1-2020q2-windows/bin/../lib/gcc/arm-none-eabi/9.3.1/../../../../arm-none-eabi/lib/thumb/v7-m/nofp\libc.a(lib_a-memchr-stub.o)
 .ARM.attributes
                0x00000b44       0x2d c:/users/roxanne/desktop/programming/adkit/tools/arm-none-eabi-gcc/9.3.1-2020q2-windows/bin/../lib/gcc/arm-none-eabi/9.3.1/../../../../arm-none-eabi/lib/thumb/v7-m/nofp\libc.a(lib_a-memmove.o)
 .ARM.attributes
                0x00000b71       0x2d c:/users/roxanne/desktop/programming/adkit/tools/arm-none-eabi-gcc/9.3.1-2020q2-windows/bin/../lib/gcc/arm-none-eabi/9.3.1/../../../../arm-none-eabi/lib/thumb/v7-m/nofp\libc.a(lib_a-mlock.o)
 .ARM.attributes
                0x00000b9e       0x2d c:/users/roxanne/desktop/programming/adkit/tools/arm-none-eabi-gcc/9.3.1-2020q2-windows/bin/../lib/gcc/arm-none-eabi/9.3.1/../../../../arm-none-eabi/lib/thumb/v7-m/nofp\libc.a(lib_a-mprec.o)
 .ARM.attributes
                0x00000bcb       0x2d c:/users/roxanne/desktop/programming/adkit/tools/arm-none-eabi-gcc/9.3.1-2020q2-windows/bin/../lib/gcc/arm-none-eabi/9.3.1/../../../../arm-none-eabi/lib/thumb/v7-m/nofp\libc.a(lib_a-putc.o)
 .ARM.attributes
                0x00000bf8       0x2d c:/users/roxanne/desktop/programming/adkit/tools/arm-none-eabi-gcc/9.3.1-2020q2-windows/bin/../lib/gcc/arm-none-eabi/9.3.1/../../../../arm-none-eabi/lib/thumb/v7-m/nofp\libc.a(lib_a-reallocr.o)
 .ARM.attributes
                0x00000c25       0x2d c:/users/roxanne/desktop/programming/adkit/tools/arm-none-eabi-gcc/9.3.1-2020q2-windows/bin/../lib/gcc/arm-none-eabi/9.3.1/../../../../arm-none-eabi/lib/thumb/v7-m/nofp\libc.a(lib_a-reent.o)
 .ARM.attributes
                0x00000c52       0x2d c:/users/roxanne/desktop/programming/adkit/tools/arm-none-eabi-gcc/9.3.1-2020q2-windows/bin/../lib/gcc/arm-none-eabi/9.3.1/../../../../arm-none-eabi/lib/thumb/v7-m/nofp\libc.a(lib_a-s_frexp.o)
 .ARM.attributes
                0x00000c7f       0x2d c:/users/roxanne/desktop/programming/adkit/tools/arm-none-eabi-gcc/9.3.1-2020q2-windows/bin/../lib/gcc/arm-none-eabi/9.3.1/../../../../arm-none-eabi/lib/thumb/v7-m/nofp\libc.a(lib_a-sbrkr.o)
 .ARM.attributes
                0x00000cac       0x2d c:/users/roxanne/desktop/programming/adkit/tools/arm-none-eabi-gcc/9.3.1-2020q2-windows/bin/../lib/gcc/arm-none-eabi/9.3.1/../../../../arm-none-eabi/lib/thumb/v7-m/nofp\libc.a(lib_a-stdio.o)
 .ARM.attributes
                0x00000cd9       0x2d c:/users/roxanne/desktop/programming/adkit/tools/arm-none-eabi-gcc/9.3.1-2020q2-windows/bin/../lib/gcc/arm-none-eabi/9.3.1/../../../../arm-none-eabi/lib/thumb/v7-m/nofp\libc.a(lib_a-strncpy.o)
 .ARM.attributes
                0x00000d06       0x2d c:/users/roxanne/desktop/programming/adkit/tools/arm-none-eabi-gcc/9.3.1-2020q2-windows/bin/../lib/gcc/arm-none-eabi/9.3.1/../../../../arm-none-eabi/lib/thumb/v7-m/nofp\libc.a(lib_a-wbuf.o)
 .ARM.attributes
                0x00000d33       0x2d c:/users/roxanne/desktop/programming/adkit/tools/arm-none-eabi-gcc/9.3.1-2020q2-windows/bin/../lib/gcc/arm-none-eabi/9.3.1/../../../../arm-none-eabi/lib/thumb/v7-m/nofp\libc.a(lib_a-wcrtomb.o)
 .ARM.attributes
                0x00000d60       0x2d c:/users/roxanne/desktop/programming/adkit/tools/arm-none-eabi-gcc/9.3.1-2020q2-windows/bin/../lib/gcc/arm-none-eabi/9.3.1/../../../../arm-none-eabi/lib/thumb/v7-m/nofp\libc.a(lib_a-wctomb_r.o)
 .ARM.attributes
                0x00000d8d       0x2d c:/users/roxanne/desktop/programming/adkit/tools/arm-none-eabi-gcc/9.3.1-2020q2-windows/bin/../lib/gcc/arm-none-eabi/9.3.1/../../../../arm-none-eabi/lib/thumb/v7-m/nofp\libc.a(lib_a-writer.o)
 .ARM.attributes
                0x00000dba       0x2d c:/users/roxanne/desktop/programming/adkit/tools/arm-none-eabi-gcc/9.3.1-2020q2-windows/bin/../lib/gcc/arm-none-eabi/9.3.1/../../../../arm-none-eabi/lib/thumb/v7-m/nofp\libc.a(lib_a-__atexit.o)
 .ARM.attributes
                0x00000de7       0x2d c:/users/roxanne/desktop/programming/adkit/tools/arm-none-eabi-gcc/9.3.1-2020q2-windows/bin/../lib/gcc/arm-none-eabi/9.3.1/../../../../arm-none-eabi/lib/thumb/v7-m/nofp\libc.a(lib_a-callocr.o)
 .ARM.attributes
                0x00000e14       0x2d c:/users/roxanne/desktop/programming/adkit/tools/arm-none-eabi-gcc/9.3.1-2020q2-windows/bin/../lib/gcc/arm-none-eabi/9.3.1/../../../../arm-none-eabi/lib/thumb/v7-m/nofp\libc.a(lib_a-closer.o)
 .ARM.attributes
                0x00000e41       0x2d c:/users/roxanne/desktop/programming/adkit/tools/arm-none-eabi-gcc/9.3.1-2020q2-windows/bin/../lib/gcc/arm-none-eabi/9.3.1/../../../../arm-none-eabi/lib/thumb/v7-m/nofp\libc.a(lib_a-ctype_.o)
 .ARM.attributes
                0x00000e6e       0x2d c:/users/roxanne/desktop/programming/adkit/tools/arm-none-eabi-gcc/9.3.1-2020q2-windows/bin/../lib/gcc/arm-none-eabi/9.3.1/../../../../arm-none-eabi/lib/thumb/v7-m/nofp\libc.a(lib_a-fclose.o)
 .ARM.attributes
                0x00000e9b       0x2d c:/users/roxanne/desktop/programming/adkit/tools/arm-none-eabi-gcc/9.3.1-2020q2-windows/bin/../lib/gcc/arm-none-eabi/9.3.1/../../../../arm-none-eabi/lib/thumb/v7-m/nofp\libc.a(lib_a-fstatr.o)
 .ARM.attributes
                0x00000ec8       0x2d c:/users/roxanne/desktop/programming/adkit/tools/arm-none-eabi-gcc/9.3.1-2020q2-windows/bin/../lib/gcc/arm-none-eabi/9.3.1/../../../../arm-none-eabi/lib/thumb/v7-m/nofp\libc.a(lib_a-isattyr.o)
 .ARM.attributes
                0x00000ef5       0x2d c:/users/roxanne/desktop/programming/adkit/tools/arm-none-eabi-gcc/9.3.1-2020q2-windows/bin/../lib/gcc/arm-none-eabi/9.3.1/../../../../arm-none-eabi/lib/thumb/v7-m/nofp\libc.a(lib_a-lseekr.o)
 .ARM.attributes
                0x00000f22       0x2d c:/users/roxanne/desktop/programming/adkit/tools/arm-none-eabi-gcc/9.3.1-2020q2-windows/bin/../lib/gcc/arm-none-eabi/9.3.1/../../../../arm-none-eabi/lib/thumb/v7-m/nofp\libc.a(lib_a-readr.o)
 .ARM.attributes
                0x00000f4f       0x1d c:/users/roxanne/desktop/programming/adkit/tools/arm-none-eabi-gcc/9.3.1-2020q2-windows/bin/../lib/gcc/arm-none-eabi/9.3.1/thumb/v7-m/nofp\libgcc.a(_arm_fixdfsi.o)
 .ARM.attributes
                0x00000f6c       0x1d c:/users/roxanne/desktop/programming/adkit/tools/arm-none-eabi-gcc/9.3.1-2020q2-windows/bin/../lib/gcc/arm-none-eabi/9.3.1/thumb/v7-m/nofp\libgcc.a(_aeabi_uldivmod.o)
 .ARM.attributes
                0x00000f89       0x2d c:/users/roxanne/desktop/programming/adkit/tools/arm-none-eabi-gcc/9.3.1-2020q2-windows/bin/../lib/gcc/arm-none-eabi/9.3.1/thumb/v7-m/nofp\libgcc.a(_udivmoddi4.o)
 .ARM.attributes
                0x00000fb6       0x1d c:/users/roxanne/desktop/programming/adkit/tools/arm-none-eabi-gcc/9.3.1-2020q2-windows/bin/../lib/gcc/arm-none-eabi/9.3.1/thumb/v7-m/nofp\libgcc.a(_dvmd_tls.o)
 .ARM.attributes
                0x00000fd3       0x1d c:/users/roxanne/desktop/programming/adkit/tools/arm-none-eabi-gcc/9.3.1-2020q2-windows/bin/../lib/gcc/arm-none-eabi/9.3.1/thumb/v7-m/nofp/crtn.o

.comment        0x00000000       0xbc
 .comment       0x00000000       0x4c ../../lib/ArduinoCore-sam/out/sam.a(syscalls_sam3.o)
                                 0x4d (size before relaxing)
 .comment       0x0000004c       0x70 ../../lib/ArduinoCore-sam/variants/arduino_due_x/libsam_sam3x8e_gcc_rel.a(startup_sam3xa.o)
                                 0x71 (size before relaxing)
 .comment       0x000000bc       0x71 ../../lib/ArduinoCore-sam/variants/arduino_due_x/libsam_sam3x8e_gcc_rel.a(uotghs.o)
 .comment       0x000000bc       0x4d build/asciz.a(main.o)
 .comment       0x000000bc       0x4d build/asciz.a(print_asciz.o)
 .comment       0x000000bc       0x4d build/asciz.a(toggle_asciz.o)
 .comment       0x000000bc       0x4d ../../lib/ArduinoCore-sam/out/sam.a(RingBuffer.o)
 .comment       0x000000bc       0x4d ../../lib/ArduinoCore-sam/out/sam.a(UARTClass.o)
 .comment       0x000000bc       0x4d ../../lib/ArduinoCore-sam/out/sam.a(watchdog.o)
 .comment       0x000000bc       0x4d ../../lib/ArduinoCore-sam/out/sam.a(cortex_handlers.o)
 .comment       0x000000bc       0x4d ../../lib/ArduinoCore-sam/out/sam.a(hooks.o)
 .comment       0x000000bc       0x4d ../../lib/ArduinoCore-sam/out/sam.a(wiring.o)
 .comment       0x000000bc       0x4d ../../lib/ArduinoCore-sam/out/sam.a(variant.o)
 .comment       0x000000bc       0x4d ../../lib/ArduinoCore-sam/out/sam.a(Print.o)
 .comment       0x000000bc       0x4d ../../lib/ArduinoCore-sam/out/sam.a(Reset.o)
 .comment       0x000000bc       0x4d ../../lib/ArduinoCore-sam/out/sam.a(USARTClass.o)
 .comment       0x000000bc       0x4d ../../lib/ArduinoCore-sam/out/sam.a(wiring_analog.o)
 .comment       0x000000bc       0x4d ../../lib/ArduinoCore-sam/out/sam.a(wiring_digital.o)
 .comment       0x000000bc       0x71 ../../lib/ArduinoCore-sam/variants/arduino_due_x/libsam_sam3x8e_gcc_rel.a(pio.o)
 .comment       0x000000bc       0x71 ../../lib/ArduinoCore-sam/variants/arduino_due_x/libsam_sam3x8e_gcc_rel.a(pmc.o)
 .comment       0x000000bc       0x71 ../../lib/ArduinoCore-sam/variants/arduino_due_x/libsam_sam3x8e_gcc_rel.a(timetick.o)
 .comment       0x000000bc       0x71 ../../lib/ArduinoCore-sam/variants/arduino_due_x/libsam_sam3x8e_gcc_rel.a(wdt.o)
 .comment       0x000000bc       0x71 ../../lib/ArduinoCore-sam/variants/arduino_due_x/libsam_sam3x8e_gcc_rel.a(system_sam3xa.o)
 .comment       0x000000bc       0x71 ../../lib/ArduinoCore-sam/variants/arduino_due_x/libsam_sam3x8e_gcc_rel.a(adc.o)

.debug_info     0x00000000    0x1fc25
 .debug_info    0x00000000      0xfb6 ../../lib/ArduinoCore-sam/out/sam.a(syscalls_sam3.o)
 .debug_info    0x00000fb6     0x3c06 build/asciz.a(main.o)
 .debug_info    0x00004bbc      0x971 build/asciz.a(print_asciz.o)
 .debug_info    0x0000552d       0x5a build/asciz.a(toggle_asciz.o)
 .debug_info    0x00005587       0x26 build/asciz.a(application.o)
 .debug_info    0x000055ad       0x26 build/asciz.a(print_asciz_asm.o)
 .debug_info    0x000055d3       0x26 build/asciz.a(toggle_asciz_asm.o)
 .debug_info    0x000055f9      0xa97 ../../lib/ArduinoCore-sam/out/sam.a(RingBuffer.o)
 .debug_info    0x00006090     0x3777 ../../lib/ArduinoCore-sam/out/sam.a(UARTClass.o)
 .debug_info    0x00009807      0x208 ../../lib/ArduinoCore-sam/out/sam.a(watchdog.o)
 .debug_info    0x00009a0f     0x1246 ../../lib/ArduinoCore-sam/out/sam.a(cortex_handlers.o)
 .debug_info    0x0000ac55       0x67 ../../lib/ArduinoCore-sam/out/sam.a(hooks.o)
 .debug_info    0x0000acbc     0x14c6 ../../lib/ArduinoCore-sam/out/sam.a(wiring.o)
 .debug_info    0x0000c182     0x49cb ../../lib/ArduinoCore-sam/out/sam.a(variant.o)
 .debug_info    0x00010b4d     0x5f5e ../../lib/ArduinoCore-sam/out/sam.a(Print.o)
 .debug_info    0x00016aab     0x38a7 ../../lib/ArduinoCore-sam/out/sam.a(Reset.o)
 .debug_info    0x0001a352     0x1c8a ../../lib/ArduinoCore-sam/out/sam.a(USARTClass.o)
 .debug_info    0x0001bfdc     0x25b1 ../../lib/ArduinoCore-sam/out/sam.a(wiring_analog.o)
 .debug_info    0x0001e58d     0x1698 ../../lib/ArduinoCore-sam/out/sam.a(wiring_digital.o)

.debug_abbrev   0x00000000     0x3a93
 .debug_abbrev  0x00000000      0x2cb ../../lib/ArduinoCore-sam/out/sam.a(syscalls_sam3.o)
 .debug_abbrev  0x000002cb      0x4e1 build/asciz.a(main.o)
 .debug_abbrev  0x000007ac      0x1f1 build/asciz.a(print_asciz.o)
 .debug_abbrev  0x0000099d       0x4f build/asciz.a(toggle_asciz.o)
 .debug_abbrev  0x000009ec       0x14 build/asciz.a(application.o)
 .debug_abbrev  0x00000a00       0x14 build/asciz.a(print_asciz_asm.o)
 .debug_abbrev  0x00000a14       0x14 build/asciz.a(toggle_asciz_asm.o)
 .debug_abbrev  0x00000a28      0x2bb ../../lib/ArduinoCore-sam/out/sam.a(RingBuffer.o)
 .debug_abbrev  0x00000ce3      0x731 ../../lib/ArduinoCore-sam/out/sam.a(UARTClass.o)
 .debug_abbrev  0x00001414      0x103 ../../lib/ArduinoCore-sam/out/sam.a(watchdog.o)
 .debug_abbrev  0x00001517      0x295 ../../lib/ArduinoCore-sam/out/sam.a(cortex_handlers.o)
 .debug_abbrev  0x000017ac       0x4d ../../lib/ArduinoCore-sam/out/sam.a(hooks.o)
 .debug_abbrev  0x000017f9      0x2d6 ../../lib/ArduinoCore-sam/out/sam.a(wiring.o)
 .debug_abbrev  0x00001acf      0x675 ../../lib/ArduinoCore-sam/out/sam.a(variant.o)
 .debug_abbrev  0x00002144      0x7b2 ../../lib/ArduinoCore-sam/out/sam.a(Print.o)
 .debug_abbrev  0x000028f6      0x4b6 ../../lib/ArduinoCore-sam/out/sam.a(Reset.o)
 .debug_abbrev  0x00002dac      0x541 ../../lib/ArduinoCore-sam/out/sam.a(USARTClass.o)
 .debug_abbrev  0x000032ed      0x467 ../../lib/ArduinoCore-sam/out/sam.a(wiring_analog.o)
 .debug_abbrev  0x00003754      0x33f ../../lib/ArduinoCore-sam/out/sam.a(wiring_digital.o)

.debug_loc      0x00000000     0x2c0e
 .debug_loc     0x00000000      0x1c5 ../../lib/ArduinoCore-sam/out/sam.a(syscalls_sam3.o)
 .debug_loc     0x000001c5       0x4d build/asciz.a(print_asciz.o)
 .debug_loc     0x00000212       0x42 build/asciz.a(toggle_asciz.o)
 .debug_loc     0x00000254       0x37 ../../lib/ArduinoCore-sam/out/sam.a(RingBuffer.o)
 .debug_loc     0x0000028b      0x530 ../../lib/ArduinoCore-sam/out/sam.a(UARTClass.o)
 .debug_loc     0x000007bb       0xc3 ../../lib/ArduinoCore-sam/out/sam.a(watchdog.o)
 .debug_loc     0x0000087e      0x11e ../../lib/ArduinoCore-sam/out/sam.a(wiring.o)
 .debug_loc     0x0000099c       0xf7 ../../lib/ArduinoCore-sam/out/sam.a(variant.o)
 .debug_loc     0x00000a93     0x15f1 ../../lib/ArduinoCore-sam/out/sam.a(Print.o)
 .debug_loc     0x00002084      0x2be ../../lib/ArduinoCore-sam/out/sam.a(USARTClass.o)
 .debug_loc     0x00002342      0x675 ../../lib/ArduinoCore-sam/out/sam.a(wiring_analog.o)
 .debug_loc     0x000029b7      0x257 ../../lib/ArduinoCore-sam/out/sam.a(wiring_digital.o)

.debug_aranges  0x00000000      0x4f0
 .debug_aranges
                0x00000000       0x70 ../../lib/ArduinoCore-sam/out/sam.a(syscalls_sam3.o)
 .debug_aranges
                0x00000070       0x20 build/asciz.a(main.o)
 .debug_aranges
                0x00000090       0x20 build/asciz.a(print_asciz.o)
 .debug_aranges
                0x000000b0       0x20 build/asciz.a(toggle_asciz.o)
 .debug_aranges
                0x000000d0       0x20 build/asciz.a(application.o)
 .debug_aranges
                0x000000f0       0x20 build/asciz.a(print_asciz_asm.o)
 .debug_aranges
                0x00000110       0x20 build/asciz.a(toggle_asciz_asm.o)
 .debug_aranges
                0x00000130       0x28 ../../lib/ArduinoCore-sam/out/sam.a(RingBuffer.o)
 .debug_aranges
                0x00000158       0x90 ../../lib/ArduinoCore-sam/out/sam.a(UARTClass.o)
 .debug_aranges
                0x000001e8       0x30 ../../lib/ArduinoCore-sam/out/sam.a(watchdog.o)
 .debug_aranges
                0x00000218       0x38 ../../lib/ArduinoCore-sam/out/sam.a(cortex_handlers.o)
 .debug_aranges
                0x00000250       0x30 ../../lib/ArduinoCore-sam/out/sam.a(hooks.o)
 .debug_aranges
                0x00000280       0x30 ../../lib/ArduinoCore-sam/out/sam.a(wiring.o)
 .debug_aranges
                0x000002b0       0x58 ../../lib/ArduinoCore-sam/out/sam.a(variant.o)
 .debug_aranges
                0x00000308       0xf0 ../../lib/ArduinoCore-sam/out/sam.a(Print.o)
 .debug_aranges
                0x000003f8       0x38 ../../lib/ArduinoCore-sam/out/sam.a(Reset.o)
 .debug_aranges
                0x00000430       0x40 ../../lib/ArduinoCore-sam/out/sam.a(USARTClass.o)
 .debug_aranges
                0x00000470       0x50 ../../lib/ArduinoCore-sam/out/sam.a(wiring_analog.o)
 .debug_aranges
                0x000004c0       0x30 ../../lib/ArduinoCore-sam/out/sam.a(wiring_digital.o)

.debug_ranges   0x00000000      0x5c8
 .debug_ranges  0x00000000       0x60 ../../lib/ArduinoCore-sam/out/sam.a(syscalls_sam3.o)
 .debug_ranges  0x00000060       0x10 build/asciz.a(main.o)
 .debug_ranges  0x00000070       0x10 build/asciz.a(print_asciz.o)
 .debug_ranges  0x00000080       0x10 build/asciz.a(toggle_asciz.o)
 .debug_ranges  0x00000090       0x18 ../../lib/ArduinoCore-sam/out/sam.a(RingBuffer.o)
 .debug_ranges  0x000000a8       0xe0 ../../lib/ArduinoCore-sam/out/sam.a(UARTClass.o)
 .debug_ranges  0x00000188       0x20 ../../lib/ArduinoCore-sam/out/sam.a(watchdog.o)
 .debug_ranges  0x000001a8       0x28 ../../lib/ArduinoCore-sam/out/sam.a(cortex_handlers.o)
 .debug_ranges  0x000001d0       0x20 ../../lib/ArduinoCore-sam/out/sam.a(hooks.o)
 .debug_ranges  0x000001f0       0x20 ../../lib/ArduinoCore-sam/out/sam.a(wiring.o)
 .debug_ranges  0x00000210       0xa0 ../../lib/ArduinoCore-sam/out/sam.a(variant.o)
 .debug_ranges  0x000002b0      0x210 ../../lib/ArduinoCore-sam/out/sam.a(Print.o)
 .debug_ranges  0x000004c0       0x28 ../../lib/ArduinoCore-sam/out/sam.a(Reset.o)
 .debug_ranges  0x000004e8       0x30 ../../lib/ArduinoCore-sam/out/sam.a(USARTClass.o)
 .debug_ranges  0x00000518       0x70 ../../lib/ArduinoCore-sam/out/sam.a(wiring_analog.o)
 .debug_ranges  0x00000588       0x40 ../../lib/ArduinoCore-sam/out/sam.a(wiring_digital.o)

.debug_line     0x00000000     0x5cf4
 .debug_line    0x00000000      0x563 ../../lib/ArduinoCore-sam/out/sam.a(syscalls_sam3.o)
 .debug_line    0x00000563      0x75e build/asciz.a(main.o)
 .debug_line    0x00000cc1      0x20a build/asciz.a(print_asciz.o)
 .debug_line    0x00000ecb       0x69 build/asciz.a(toggle_asciz.o)
 .debug_line    0x00000f34       0x3d build/asciz.a(application.o)
 .debug_line    0x00000f71       0x4d build/asciz.a(print_asciz_asm.o)
 .debug_line    0x00000fbe       0x4f build/asciz.a(toggle_asciz_asm.o)
 .debug_line    0x0000100d      0x284 ../../lib/ArduinoCore-sam/out/sam.a(RingBuffer.o)
 .debug_line    0x00001291      0xa9d ../../lib/ArduinoCore-sam/out/sam.a(UARTClass.o)
 .debug_line    0x00001d2e      0x2ed ../../lib/ArduinoCore-sam/out/sam.a(watchdog.o)
 .debug_line    0x0000201b      0x494 ../../lib/ArduinoCore-sam/out/sam.a(cortex_handlers.o)
 .debug_line    0x000024af       0x98 ../../lib/ArduinoCore-sam/out/sam.a(hooks.o)
 .debug_line    0x00002547      0x512 ../../lib/ArduinoCore-sam/out/sam.a(wiring.o)
 .debug_line    0x00002a59      0x987 ../../lib/ArduinoCore-sam/out/sam.a(variant.o)
 .debug_line    0x000033e0      0xd11 ../../lib/ArduinoCore-sam/out/sam.a(Print.o)
 .debug_line    0x000040f1      0x749 ../../lib/ArduinoCore-sam/out/sam.a(Reset.o)
 .debug_line    0x0000483a      0x67c ../../lib/ArduinoCore-sam/out/sam.a(USARTClass.o)
 .debug_line    0x00004eb6      0x88e ../../lib/ArduinoCore-sam/out/sam.a(wiring_analog.o)
 .debug_line    0x00005744      0x5b0 ../../lib/ArduinoCore-sam/out/sam.a(wiring_digital.o)

.debug_str      0x00000000     0x4806
 .debug_str     0x00000000      0x7b7 ../../lib/ArduinoCore-sam/out/sam.a(syscalls_sam3.o)
                                0x8af (size before relaxing)
 .debug_str     0x000007b7     0x1546 build/asciz.a(main.o)
                               0x1bd4 (size before relaxing)
 .debug_str     0x00001cfd       0x25 build/asciz.a(print_asciz.o)
                                0x5dc (size before relaxing)
 .debug_str     0x00001d22       0x11 build/asciz.a(toggle_asciz.o)
                                0x13e (size before relaxing)
 .debug_str     0x00001d33       0x1c build/asciz.a(application.o)
                                 0x51 (size before relaxing)
 .debug_str     0x00001d4f       0x12 build/asciz.a(print_asciz_asm.o)
                                 0x55 (size before relaxing)
 .debug_str     0x00001d61       0x13 build/asciz.a(toggle_asciz_asm.o)
                                 0x56 (size before relaxing)
 .debug_str     0x00001d74      0x140 ../../lib/ArduinoCore-sam/out/sam.a(RingBuffer.o)
                                0x68d (size before relaxing)
 .debug_str     0x00001eb4     0x13c0 ../../lib/ArduinoCore-sam/out/sam.a(UARTClass.o)
                               0x1ffa (size before relaxing)
 .debug_str     0x00003274       0xe7 ../../lib/ArduinoCore-sam/out/sam.a(watchdog.o)
                                0x301 (size before relaxing)
 .debug_str     0x0000335b       0x9e ../../lib/ArduinoCore-sam/out/sam.a(cortex_handlers.o)
                                0xbd1 (size before relaxing)
 .debug_str     0x000033f9       0x36 ../../lib/ArduinoCore-sam/out/sam.a(hooks.o)
                                0x11f (size before relaxing)
 .debug_str     0x0000342f       0x71 ../../lib/ArduinoCore-sam/out/sam.a(wiring.o)
                                0xc27 (size before relaxing)
 .debug_str     0x000034a0      0x54e ../../lib/ArduinoCore-sam/out/sam.a(variant.o)
                               0x2210 (size before relaxing)
 .debug_str     0x000039ee      0x3a9 ../../lib/ArduinoCore-sam/out/sam.a(Print.o)
                               0x2727 (size before relaxing)
 .debug_str     0x00003d97       0xc6 ../../lib/ArduinoCore-sam/out/sam.a(Reset.o)
                               0x18d9 (size before relaxing)
 .debug_str     0x00003e5d      0x276 ../../lib/ArduinoCore-sam/out/sam.a(USARTClass.o)
                                0xfd8 (size before relaxing)
 .debug_str     0x000040d3      0x6b9 ../../lib/ArduinoCore-sam/out/sam.a(wiring_analog.o)
                               0x1338 (size before relaxing)
 .debug_str     0x0000478c       0x7a ../../lib/ArduinoCore-sam/out/sam.a(wiring_digital.o)
                                0xcfd (size before relaxing)

.debug_frame    0x00000000     0x1ffc
 .debug_frame   0x00000000       0xc8 ../../lib/ArduinoCore-sam/out/sam.a(syscalls_sam3.o)
 .debug_frame   0x000000c8       0x30 build/asciz.a(main.o)
 .debug_frame   0x000000f8       0x28 build/asciz.a(print_asciz.o)
 .debug_frame   0x00000120       0x20 build/asciz.a(toggle_asciz.o)
 .debug_frame   0x00000140       0x38 ../../lib/ArduinoCore-sam/out/sam.a(RingBuffer.o)
 .debug_frame   0x00000178      0x13c ../../lib/ArduinoCore-sam/out/sam.a(UARTClass.o)
 .debug_frame   0x000002b4       0x50 ../../lib/ArduinoCore-sam/out/sam.a(watchdog.o)
 .debug_frame   0x00000304       0x60 ../../lib/ArduinoCore-sam/out/sam.a(cortex_handlers.o)
 .debug_frame   0x00000364       0x40 ../../lib/ArduinoCore-sam/out/sam.a(hooks.o)
 .debug_frame   0x000003a4       0x60 ../../lib/ArduinoCore-sam/out/sam.a(wiring.o)
 .debug_frame   0x00000404       0xfc ../../lib/ArduinoCore-sam/out/sam.a(variant.o)
 .debug_frame   0x00000500      0x2e4 ../../lib/ArduinoCore-sam/out/sam.a(Print.o)
 .debug_frame   0x000007e4       0x58 ../../lib/ArduinoCore-sam/out/sam.a(Reset.o)
 .debug_frame   0x0000083c       0x70 ../../lib/ArduinoCore-sam/out/sam.a(USARTClass.o)
 .debug_frame   0x000008ac       0xdc ../../lib/ArduinoCore-sam/out/sam.a(wiring_analog.o)
 .debug_frame   0x00000988       0x90 ../../lib/ArduinoCore-sam/out/sam.a(wiring_digital.o)
 .debug_frame   0x00000a18       0xac c:/users/roxanne/desktop/programming/adkit/tools/arm-none-eabi-gcc/9.3.1-2020q2-windows/bin/../lib/gcc/arm-none-eabi/9.3.1/thumb/v7-m/nofp\libgcc.a(_arm_addsubdf3.o)
 .debug_frame   0x00000ac4       0x50 c:/users/roxanne/desktop/programming/adkit/tools/arm-none-eabi-gcc/9.3.1-2020q2-windows/bin/../lib/gcc/arm-none-eabi/9.3.1/thumb/v7-m/nofp\libgcc.a(_arm_muldivdf3.o)
 .debug_frame   0x00000b14       0xc4 c:/users/roxanne/desktop/programming/adkit/tools/arm-none-eabi-gcc/9.3.1-2020q2-windows/bin/../lib/gcc/arm-none-eabi/9.3.1/thumb/v7-m/nofp\libgcc.a(_arm_cmpdf2.o)
 .debug_frame   0x00000bd8       0x20 c:/users/roxanne/desktop/programming/adkit/tools/arm-none-eabi-gcc/9.3.1-2020q2-windows/bin/../lib/gcc/arm-none-eabi/9.3.1/thumb/v7-m/nofp\libgcc.a(_arm_unorddf2.o)
 .debug_frame   0x00000bf8       0x28 c:/users/roxanne/desktop/programming/adkit/tools/arm-none-eabi-gcc/9.3.1-2020q2-windows/bin/../lib/gcc/arm-none-eabi/9.3.1/../../../../arm-none-eabi/lib/thumb/v7-m/nofp\libc.a(lib_a-abort.o)
 .debug_frame   0x00000c20       0x40 c:/users/roxanne/desktop/programming/adkit/tools/arm-none-eabi-gcc/9.3.1-2020q2-windows/bin/../lib/gcc/arm-none-eabi/9.3.1/../../../../arm-none-eabi/lib/thumb/v7-m/nofp\libc.a(lib_a-assert.o)
 .debug_frame   0x00000c60       0x70 c:/users/roxanne/desktop/programming/adkit/tools/arm-none-eabi-gcc/9.3.1-2020q2-windows/bin/../lib/gcc/arm-none-eabi/9.3.1/../../../../arm-none-eabi/lib/thumb/v7-m/nofp\libc.a(lib_a-fiprintf.o)
 .debug_frame   0x00000cd0       0x2c c:/users/roxanne/desktop/programming/adkit/tools/arm-none-eabi-gcc/9.3.1-2020q2-windows/bin/../lib/gcc/arm-none-eabi/9.3.1/../../../../arm-none-eabi/lib/thumb/v7-m/nofp\libc.a(lib_a-init.o)
 .debug_frame   0x00000cfc       0x38 c:/users/roxanne/desktop/programming/adkit/tools/arm-none-eabi-gcc/9.3.1-2020q2-windows/bin/../lib/gcc/arm-none-eabi/9.3.1/../../../../arm-none-eabi/lib/thumb/v7-m/nofp\libc.a(lib_a-memset.o)
 .debug_frame   0x00000d34       0x74 c:/users/roxanne/desktop/programming/adkit/tools/arm-none-eabi-gcc/9.3.1-2020q2-windows/bin/../lib/gcc/arm-none-eabi/9.3.1/../../../../arm-none-eabi/lib/thumb/v7-m/nofp\libc.a(lib_a-printf.o)
 .debug_frame   0x00000da8       0x30 c:/users/roxanne/desktop/programming/adkit/tools/arm-none-eabi-gcc/9.3.1-2020q2-windows/bin/../lib/gcc/arm-none-eabi/9.3.1/../../../../arm-none-eabi/lib/thumb/v7-m/nofp\libc.a(lib_a-putchar.o)
 .debug_frame   0x00000dd8       0xe0 c:/users/roxanne/desktop/programming/adkit/tools/arm-none-eabi-gcc/9.3.1-2020q2-windows/bin/../lib/gcc/arm-none-eabi/9.3.1/../../../../arm-none-eabi/lib/thumb/v7-m/nofp\libc.a(lib_a-signal.o)
 .debug_frame   0x00000eb8       0x3c c:/users/roxanne/desktop/programming/adkit/tools/arm-none-eabi-gcc/9.3.1-2020q2-windows/bin/../lib/gcc/arm-none-eabi/9.3.1/../../../../arm-none-eabi/lib/thumb/v7-m/nofp\libc.a(lib_a-signalr.o)
 .debug_frame   0x00000ef4       0x20 c:/users/roxanne/desktop/programming/adkit/tools/arm-none-eabi-gcc/9.3.1-2020q2-windows/bin/../lib/gcc/arm-none-eabi/9.3.1/../../../../arm-none-eabi/lib/thumb/v7-m/nofp\libc.a(lib_a-strlen-stub.o)
 .debug_frame   0x00000f14       0x20 c:/users/roxanne/desktop/programming/adkit/tools/arm-none-eabi-gcc/9.3.1-2020q2-windows/bin/../lib/gcc/arm-none-eabi/9.3.1/../../../../arm-none-eabi/lib/thumb/v7-m/nofp\libc.a(lib_a-syskill.o)
 .debug_frame   0x00000f34       0xd0 c:/users/roxanne/desktop/programming/adkit/tools/arm-none-eabi-gcc/9.3.1-2020q2-windows/bin/../lib/gcc/arm-none-eabi/9.3.1/../../../../arm-none-eabi/lib/thumb/v7-m/nofp\libc.a(lib_a-vfiprintf.o)
 .debug_frame   0x00001004       0x8c c:/users/roxanne/desktop/programming/adkit/tools/arm-none-eabi-gcc/9.3.1-2020q2-windows/bin/../lib/gcc/arm-none-eabi/9.3.1/../../../../arm-none-eabi/lib/thumb/v7-m/nofp\libc.a(lib_a-vfprintf.o)
 .debug_frame   0x00001090       0x2c c:/users/roxanne/desktop/programming/adkit/tools/arm-none-eabi-gcc/9.3.1-2020q2-windows/bin/../lib/gcc/arm-none-eabi/9.3.1/../../../../arm-none-eabi/lib/thumb/v7-m/nofp\libc.a(lib_a-wsetup.o)
 .debug_frame   0x000010bc       0x5c c:/users/roxanne/desktop/programming/adkit/tools/arm-none-eabi-gcc/9.3.1-2020q2-windows/bin/../lib/gcc/arm-none-eabi/9.3.1/../../../../arm-none-eabi/lib/thumb/v7-m/nofp\libc.a(lib_a-__call_atexit.o)
 .debug_frame   0x00001118       0x20 c:/users/roxanne/desktop/programming/adkit/tools/arm-none-eabi-gcc/9.3.1-2020q2-windows/bin/../lib/gcc/arm-none-eabi/9.3.1/../../../../arm-none-eabi/lib/thumb/v7-m/nofp\libc.a(lib_a-atexit.o)
 .debug_frame   0x00001138       0x8c c:/users/roxanne/desktop/programming/adkit/tools/arm-none-eabi-gcc/9.3.1-2020q2-windows/bin/../lib/gcc/arm-none-eabi/9.3.1/../../../../arm-none-eabi/lib/thumb/v7-m/nofp\libc.a(lib_a-dtoa.o)
 .debug_frame   0x000011c4       0x5c c:/users/roxanne/desktop/programming/adkit/tools/arm-none-eabi-gcc/9.3.1-2020q2-windows/bin/../lib/gcc/arm-none-eabi/9.3.1/../../../../arm-none-eabi/lib/thumb/v7-m/nofp\libc.a(lib_a-fflush.o)
 .debug_frame   0x00001220      0x154 c:/users/roxanne/desktop/programming/adkit/tools/arm-none-eabi-gcc/9.3.1-2020q2-windows/bin/../lib/gcc/arm-none-eabi/9.3.1/../../../../arm-none-eabi/lib/thumb/v7-m/nofp\libc.a(lib_a-findfp.o)
 .debug_frame   0x00001374       0x34 c:/users/roxanne/desktop/programming/adkit/tools/arm-none-eabi-gcc/9.3.1-2020q2-windows/bin/../lib/gcc/arm-none-eabi/9.3.1/../../../../arm-none-eabi/lib/thumb/v7-m/nofp\libc.a(lib_a-fini.o)
 .debug_frame   0x000013a8       0x98 c:/users/roxanne/desktop/programming/adkit/tools/arm-none-eabi-gcc/9.3.1-2020q2-windows/bin/../lib/gcc/arm-none-eabi/9.3.1/../../../../arm-none-eabi/lib/thumb/v7-m/nofp\libc.a(lib_a-fputwc.o)
 .debug_frame   0x00001440       0x8c c:/users/roxanne/desktop/programming/adkit/tools/arm-none-eabi-gcc/9.3.1-2020q2-windows/bin/../lib/gcc/arm-none-eabi/9.3.1/../../../../arm-none-eabi/lib/thumb/v7-m/nofp\libc.a(lib_a-freer.o)
 .debug_frame   0x000014cc       0x64 c:/users/roxanne/desktop/programming/adkit/tools/arm-none-eabi-gcc/9.3.1-2020q2-windows/bin/../lib/gcc/arm-none-eabi/9.3.1/../../../../arm-none-eabi/lib/thumb/v7-m/nofp\libc.a(lib_a-fvwrite.o)
 .debug_frame   0x00001530       0x54 c:/users/roxanne/desktop/programming/adkit/tools/arm-none-eabi-gcc/9.3.1-2020q2-windows/bin/../lib/gcc/arm-none-eabi/9.3.1/../../../../arm-none-eabi/lib/thumb/v7-m/nofp\libc.a(lib_a-fwalk.o)
 .debug_frame   0x00001584       0x54 c:/users/roxanne/desktop/programming/adkit/tools/arm-none-eabi-gcc/9.3.1-2020q2-windows/bin/../lib/gcc/arm-none-eabi/9.3.1/../../../../arm-none-eabi/lib/thumb/v7-m/nofp\libc.a(lib_a-locale.o)
 .debug_frame   0x000015d8       0x40 c:/users/roxanne/desktop/programming/adkit/tools/arm-none-eabi-gcc/9.3.1-2020q2-windows/bin/../lib/gcc/arm-none-eabi/9.3.1/../../../../arm-none-eabi/lib/thumb/v7-m/nofp\libc.a(lib_a-localeconv.o)
 .debug_frame   0x00001618       0xb0 c:/users/roxanne/desktop/programming/adkit/tools/arm-none-eabi-gcc/9.3.1-2020q2-windows/bin/../lib/gcc/arm-none-eabi/9.3.1/../../../../arm-none-eabi/lib/thumb/v7-m/nofp\libc.a(lib_a-lock.o)
 .debug_frame   0x000016c8       0x6c c:/users/roxanne/desktop/programming/adkit/tools/arm-none-eabi-gcc/9.3.1-2020q2-windows/bin/../lib/gcc/arm-none-eabi/9.3.1/../../../../arm-none-eabi/lib/thumb/v7-m/nofp\libc.a(lib_a-makebuf.o)
 .debug_frame   0x00001734       0x4c c:/users/roxanne/desktop/programming/adkit/tools/arm-none-eabi-gcc/9.3.1-2020q2-windows/bin/../lib/gcc/arm-none-eabi/9.3.1/../../../../arm-none-eabi/lib/thumb/v7-m/nofp\libc.a(lib_a-mallocr.o)
 .debug_frame   0x00001780       0x4c c:/users/roxanne/desktop/programming/adkit/tools/arm-none-eabi-gcc/9.3.1-2020q2-windows/bin/../lib/gcc/arm-none-eabi/9.3.1/../../../../arm-none-eabi/lib/thumb/v7-m/nofp\libc.a(lib_a-mbtowc_r.o)
 .debug_frame   0x000017cc       0x44 c:/users/roxanne/desktop/programming/adkit/tools/arm-none-eabi-gcc/9.3.1-2020q2-windows/bin/../lib/gcc/arm-none-eabi/9.3.1/../../../../arm-none-eabi/lib/thumb/v7-m/nofp\libc.a(lib_a-memchr-stub.o)
 .debug_frame   0x00001810       0x40 c:/users/roxanne/desktop/programming/adkit/tools/arm-none-eabi-gcc/9.3.1-2020q2-windows/bin/../lib/gcc/arm-none-eabi/9.3.1/../../../../arm-none-eabi/lib/thumb/v7-m/nofp\libc.a(lib_a-memmove.o)
 .debug_frame   0x00001850       0x30 c:/users/roxanne/desktop/programming/adkit/tools/arm-none-eabi-gcc/9.3.1-2020q2-windows/bin/../lib/gcc/arm-none-eabi/9.3.1/../../../../arm-none-eabi/lib/thumb/v7-m/nofp\libc.a(lib_a-mlock.o)
 .debug_frame   0x00001880      0x260 c:/users/roxanne/desktop/programming/adkit/tools/arm-none-eabi-gcc/9.3.1-2020q2-windows/bin/../lib/gcc/arm-none-eabi/9.3.1/../../../../arm-none-eabi/lib/thumb/v7-m/nofp\libc.a(lib_a-mprec.o)
 .debug_frame   0x00001ae0       0x48 c:/users/roxanne/desktop/programming/adkit/tools/arm-none-eabi-gcc/9.3.1-2020q2-windows/bin/../lib/gcc/arm-none-eabi/9.3.1/../../../../arm-none-eabi/lib/thumb/v7-m/nofp\libc.a(lib_a-putc.o)
 .debug_frame   0x00001b28       0x48 c:/users/roxanne/desktop/programming/adkit/tools/arm-none-eabi-gcc/9.3.1-2020q2-windows/bin/../lib/gcc/arm-none-eabi/9.3.1/../../../../arm-none-eabi/lib/thumb/v7-m/nofp\libc.a(lib_a-reallocr.o)
 .debug_frame   0x00001b70       0x60 c:/users/roxanne/desktop/programming/adkit/tools/arm-none-eabi-gcc/9.3.1-2020q2-windows/bin/../lib/gcc/arm-none-eabi/9.3.1/../../../../arm-none-eabi/lib/thumb/v7-m/nofp\libc.a(lib_a-reent.o)
 .debug_frame   0x00001bd0       0x30 c:/users/roxanne/desktop/programming/adkit/tools/arm-none-eabi-gcc/9.3.1-2020q2-windows/bin/../lib/gcc/arm-none-eabi/9.3.1/../../../../arm-none-eabi/lib/thumb/v7-m/nofp\libc.a(lib_a-s_frexp.o)
 .debug_frame   0x00001c00       0x2c c:/users/roxanne/desktop/programming/adkit/tools/arm-none-eabi-gcc/9.3.1-2020q2-windows/bin/../lib/gcc/arm-none-eabi/9.3.1/../../../../arm-none-eabi/lib/thumb/v7-m/nofp\libc.a(lib_a-sbrkr.o)
 .debug_frame   0x00001c2c       0x8c c:/users/roxanne/desktop/programming/adkit/tools/arm-none-eabi-gcc/9.3.1-2020q2-windows/bin/../lib/gcc/arm-none-eabi/9.3.1/../../../../arm-none-eabi/lib/thumb/v7-m/nofp\libc.a(lib_a-stdio.o)
 .debug_frame   0x00001cb8       0x38 c:/users/roxanne/desktop/programming/adkit/tools/arm-none-eabi-gcc/9.3.1-2020q2-windows/bin/../lib/gcc/arm-none-eabi/9.3.1/../../../../arm-none-eabi/lib/thumb/v7-m/nofp\libc.a(lib_a-strncpy.o)
 .debug_frame   0x00001cf0       0x40 c:/users/roxanne/desktop/programming/adkit/tools/arm-none-eabi-gcc/9.3.1-2020q2-windows/bin/../lib/gcc/arm-none-eabi/9.3.1/../../../../arm-none-eabi/lib/thumb/v7-m/nofp\libc.a(lib_a-wbuf.o)
 .debug_frame   0x00001d30       0x60 c:/users/roxanne/desktop/programming/adkit/tools/arm-none-eabi-gcc/9.3.1-2020q2-windows/bin/../lib/gcc/arm-none-eabi/9.3.1/../../../../arm-none-eabi/lib/thumb/v7-m/nofp\libc.a(lib_a-wcrtomb.o)
 .debug_frame   0x00001d90       0x3c c:/users/roxanne/desktop/programming/adkit/tools/arm-none-eabi-gcc/9.3.1-2020q2-windows/bin/../lib/gcc/arm-none-eabi/9.3.1/../../../../arm-none-eabi/lib/thumb/v7-m/nofp\libc.a(lib_a-wctomb_r.o)
 .debug_frame   0x00001dcc       0x30 c:/users/roxanne/desktop/programming/adkit/tools/arm-none-eabi-gcc/9.3.1-2020q2-windows/bin/../lib/gcc/arm-none-eabi/9.3.1/../../../../arm-none-eabi/lib/thumb/v7-m/nofp\libc.a(lib_a-writer.o)
 .debug_frame   0x00001dfc       0x34 c:/users/roxanne/desktop/programming/adkit/tools/arm-none-eabi-gcc/9.3.1-2020q2-windows/bin/../lib/gcc/arm-none-eabi/9.3.1/../../../../arm-none-eabi/lib/thumb/v7-m/nofp\libc.a(lib_a-__atexit.o)
 .debug_frame   0x00001e30       0x28 c:/users/roxanne/desktop/programming/adkit/tools/arm-none-eabi-gcc/9.3.1-2020q2-windows/bin/../lib/gcc/arm-none-eabi/9.3.1/../../../../arm-none-eabi/lib/thumb/v7-m/nofp\libc.a(lib_a-callocr.o)
 .debug_frame   0x00001e58       0x2c c:/users/roxanne/desktop/programming/adkit/tools/arm-none-eabi-gcc/9.3.1-2020q2-windows/bin/../lib/gcc/arm-none-eabi/9.3.1/../../../../arm-none-eabi/lib/thumb/v7-m/nofp\libc.a(lib_a-closer.o)
 .debug_frame   0x00001e84       0x3c c:/users/roxanne/desktop/programming/adkit/tools/arm-none-eabi-gcc/9.3.1-2020q2-windows/bin/../lib/gcc/arm-none-eabi/9.3.1/../../../../arm-none-eabi/lib/thumb/v7-m/nofp\libc.a(lib_a-fclose.o)
 .debug_frame   0x00001ec0       0x2c c:/users/roxanne/desktop/programming/adkit/tools/arm-none-eabi-gcc/9.3.1-2020q2-windows/bin/../lib/gcc/arm-none-eabi/9.3.1/../../../../arm-none-eabi/lib/thumb/v7-m/nofp\libc.a(lib_a-fstatr.o)
 .debug_frame   0x00001eec       0x2c c:/users/roxanne/desktop/programming/adkit/tools/arm-none-eabi-gcc/9.3.1-2020q2-windows/bin/../lib/gcc/arm-none-eabi/9.3.1/../../../../arm-none-eabi/lib/thumb/v7-m/nofp\libc.a(lib_a-isattyr.o)
 .debug_frame   0x00001f18       0x30 c:/users/roxanne/desktop/programming/adkit/tools/arm-none-eabi-gcc/9.3.1-2020q2-windows/bin/../lib/gcc/arm-none-eabi/9.3.1/../../../../arm-none-eabi/lib/thumb/v7-m/nofp\libc.a(lib_a-lseekr.o)
 .debug_frame   0x00001f48       0x30 c:/users/roxanne/desktop/programming/adkit/tools/arm-none-eabi-gcc/9.3.1-2020q2-windows/bin/../lib/gcc/arm-none-eabi/9.3.1/../../../../arm-none-eabi/lib/thumb/v7-m/nofp\libc.a(lib_a-readr.o)
 .debug_frame   0x00001f78       0x24 c:/users/roxanne/desktop/programming/adkit/tools/arm-none-eabi-gcc/9.3.1-2020q2-windows/bin/../lib/gcc/arm-none-eabi/9.3.1/thumb/v7-m/nofp\libgcc.a(_arm_fixdfsi.o)
 .debug_frame   0x00001f9c       0x2c c:/users/roxanne/desktop/programming/adkit/tools/arm-none-eabi-gcc/9.3.1-2020q2-windows/bin/../lib/gcc/arm-none-eabi/9.3.1/thumb/v7-m/nofp\libgcc.a(_aeabi_uldivmod.o)
 .debug_frame   0x00001fc8       0x34 c:/users/roxanne/desktop/programming/adkit/tools/arm-none-eabi-gcc/9.3.1-2020q2-windows/bin/../lib/gcc/arm-none-eabi/9.3.1/thumb/v7-m/nofp\libgcc.a(_udivmoddi4.o)

Cross Reference Table

Symbol                                            File
ADC_Handler                                       ../../lib/ArduinoCore-sam/out/sam.a(cortex_handlers.o)
                                                  ../../lib/ArduinoCore-sam/variants/arduino_due_x/libsam_sam3x8e_gcc_rel.a(startup_sam3xa.o)
BusFault_Handler                                  ../../lib/ArduinoCore-sam/out/sam.a(cortex_handlers.o)
                                                  ../../lib/ArduinoCore-sam/variants/arduino_due_x/libsam_sam3x8e_gcc_rel.a(startup_sam3xa.o)
CAN0_Handler                                      ../../lib/ArduinoCore-sam/out/sam.a(cortex_handlers.o)
                                                  ../../lib/ArduinoCore-sam/variants/arduino_due_x/libsam_sam3x8e_gcc_rel.a(startup_sam3xa.o)
CAN1_Handler                                      ../../lib/ArduinoCore-sam/out/sam.a(cortex_handlers.o)
                                                  ../../lib/ArduinoCore-sam/variants/arduino_due_x/libsam_sam3x8e_gcc_rel.a(startup_sam3xa.o)
DACC_Handler                                      ../../lib/ArduinoCore-sam/out/sam.a(cortex_handlers.o)
                                                  ../../lib/ArduinoCore-sam/variants/arduino_due_x/libsam_sam3x8e_gcc_rel.a(startup_sam3xa.o)
DMAC_Handler                                      ../../lib/ArduinoCore-sam/out/sam.a(cortex_handlers.o)
                                                  ../../lib/ArduinoCore-sam/variants/arduino_due_x/libsam_sam3x8e_gcc_rel.a(startup_sam3xa.o)
DebugMon_Handler                                  ../../lib/ArduinoCore-sam/out/sam.a(cortex_handlers.o)
                                                  ../../lib/ArduinoCore-sam/variants/arduino_due_x/libsam_sam3x8e_gcc_rel.a(startup_sam3xa.o)
EFC0_Handler                                      ../../lib/ArduinoCore-sam/out/sam.a(cortex_handlers.o)
                                                  ../../lib/ArduinoCore-sam/variants/arduino_due_x/libsam_sam3x8e_gcc_rel.a(startup_sam3xa.o)
EFC1_Handler                                      ../../lib/ArduinoCore-sam/out/sam.a(cortex_handlers.o)
                                                  ../../lib/ArduinoCore-sam/variants/arduino_due_x/libsam_sam3x8e_gcc_rel.a(startup_sam3xa.o)
EMAC_Handler                                      ../../lib/ArduinoCore-sam/out/sam.a(cortex_handlers.o)
                                                  ../../lib/ArduinoCore-sam/variants/arduino_due_x/libsam_sam3x8e_gcc_rel.a(startup_sam3xa.o)
GetTickCount                                      ../../lib/ArduinoCore-sam/variants/arduino_due_x/libsam_sam3x8e_gcc_rel.a(timetick.o)
                                                  ../../lib/ArduinoCore-sam/out/sam.a(wiring.o)
HSMCI_Handler                                     ../../lib/ArduinoCore-sam/out/sam.a(cortex_handlers.o)
                                                  ../../lib/ArduinoCore-sam/variants/arduino_due_x/libsam_sam3x8e_gcc_rel.a(startup_sam3xa.o)
HardFault_Handler                                 ../../lib/ArduinoCore-sam/out/sam.a(cortex_handlers.o)
                                                  ../../lib/ArduinoCore-sam/variants/arduino_due_x/libsam_sam3x8e_gcc_rel.a(startup_sam3xa.o)
MemManage_Handler                                 ../../lib/ArduinoCore-sam/out/sam.a(cortex_handlers.o)
                                                  ../../lib/ArduinoCore-sam/variants/arduino_due_x/libsam_sam3x8e_gcc_rel.a(startup_sam3xa.o)
NMI_Handler                                       ../../lib/ArduinoCore-sam/out/sam.a(cortex_handlers.o)
                                                  ../../lib/ArduinoCore-sam/variants/arduino_due_x/libsam_sam3x8e_gcc_rel.a(startup_sam3xa.o)
PIOA_Handler                                      ../../lib/ArduinoCore-sam/out/sam.a(cortex_handlers.o)
                                                  ../../lib/ArduinoCore-sam/variants/arduino_due_x/libsam_sam3x8e_gcc_rel.a(startup_sam3xa.o)
PIOB_Handler                                      ../../lib/ArduinoCore-sam/out/sam.a(cortex_handlers.o)
                                                  ../../lib/ArduinoCore-sam/variants/arduino_due_x/libsam_sam3x8e_gcc_rel.a(startup_sam3xa.o)
PIOC_Handler                                      ../../lib/ArduinoCore-sam/out/sam.a(cortex_handlers.o)
                                                  ../../lib/ArduinoCore-sam/variants/arduino_due_x/libsam_sam3x8e_gcc_rel.a(startup_sam3xa.o)
PIOD_Handler                                      ../../lib/ArduinoCore-sam/out/sam.a(cortex_handlers.o)
                                                  ../../lib/ArduinoCore-sam/variants/arduino_due_x/libsam_sam3x8e_gcc_rel.a(startup_sam3xa.o)
PIO_Clear                                         ../../lib/ArduinoCore-sam/variants/arduino_due_x/libsam_sam3x8e_gcc_rel.a(pio.o)
PIO_Configure                                     ../../lib/ArduinoCore-sam/variants/arduino_due_x/libsam_sam3x8e_gcc_rel.a(pio.o)
                                                  ../../lib/ArduinoCore-sam/out/sam.a(wiring_digital.o)
                                                  ../../lib/ArduinoCore-sam/out/sam.a(wiring_analog.o)
                                                  ../../lib/ArduinoCore-sam/out/sam.a(variant.o)
PIO_DisableInterrupt                              ../../lib/ArduinoCore-sam/variants/arduino_due_x/libsam_sam3x8e_gcc_rel.a(pio.o)
PIO_Get                                           ../../lib/ArduinoCore-sam/variants/arduino_due_x/libsam_sam3x8e_gcc_rel.a(pio.o)
                                                  ../../lib/ArduinoCore-sam/out/sam.a(wiring_digital.o)
PIO_GetOutputDataStatus                           ../../lib/ArduinoCore-sam/variants/arduino_due_x/libsam_sam3x8e_gcc_rel.a(pio.o)
                                                  ../../lib/ArduinoCore-sam/out/sam.a(wiring_digital.o)
PIO_PullUp                                        ../../lib/ArduinoCore-sam/variants/arduino_due_x/libsam_sam3x8e_gcc_rel.a(pio.o)
                                                  ../../lib/ArduinoCore-sam/out/sam.a(wiring_digital.o)
PIO_Set                                           ../../lib/ArduinoCore-sam/variants/arduino_due_x/libsam_sam3x8e_gcc_rel.a(pio.o)
PIO_SetDebounceFilter                             ../../lib/ArduinoCore-sam/variants/arduino_due_x/libsam_sam3x8e_gcc_rel.a(pio.o)
PIO_SetInput                                      ../../lib/ArduinoCore-sam/variants/arduino_due_x/libsam_sam3x8e_gcc_rel.a(pio.o)
PIO_SetOutput                                     ../../lib/ArduinoCore-sam/variants/arduino_due_x/libsam_sam3x8e_gcc_rel.a(pio.o)
                                                  ../../lib/ArduinoCore-sam/out/sam.a(wiring_digital.o)
PIO_SetPeripheral                                 ../../lib/ArduinoCore-sam/variants/arduino_due_x/libsam_sam3x8e_gcc_rel.a(pio.o)
PMC_Handler                                       ../../lib/ArduinoCore-sam/out/sam.a(cortex_handlers.o)
                                                  ../../lib/ArduinoCore-sam/variants/arduino_due_x/libsam_sam3x8e_gcc_rel.a(startup_sam3xa.o)
PWMC_ConfigureChannel                             ../../lib/ArduinoCore-sam/variants/arduino_due_x/libsam_sam3x8e_gcc_rel.a(pwmc.o)
                                                  ../../lib/ArduinoCore-sam/out/sam.a(wiring_analog.o)
PWMC_ConfigureChannelExt                          ../../lib/ArduinoCore-sam/variants/arduino_due_x/libsam_sam3x8e_gcc_rel.a(pwmc.o)
PWMC_ConfigureClocks                              ../../lib/ArduinoCore-sam/variants/arduino_due_x/libsam_sam3x8e_gcc_rel.a(pwmc.o)
                                                  ../../lib/ArduinoCore-sam/out/sam.a(wiring_analog.o)
PWMC_ConfigureComparisonUnit                      ../../lib/ArduinoCore-sam/variants/arduino_due_x/libsam_sam3x8e_gcc_rel.a(pwmc.o)
PWMC_ConfigureEventLineMode                       ../../lib/ArduinoCore-sam/variants/arduino_due_x/libsam_sam3x8e_gcc_rel.a(pwmc.o)
PWMC_ConfigureSyncChannel                         ../../lib/ArduinoCore-sam/variants/arduino_due_x/libsam_sam3x8e_gcc_rel.a(pwmc.o)
PWMC_DisableChannel                               ../../lib/ArduinoCore-sam/variants/arduino_due_x/libsam_sam3x8e_gcc_rel.a(pwmc.o)
PWMC_DisableChannelIt                             ../../lib/ArduinoCore-sam/variants/arduino_due_x/libsam_sam3x8e_gcc_rel.a(pwmc.o)
PWMC_DisableIt                                    ../../lib/ArduinoCore-sam/variants/arduino_due_x/libsam_sam3x8e_gcc_rel.a(pwmc.o)
PWMC_DisableOverrideOutput                        ../../lib/ArduinoCore-sam/variants/arduino_due_x/libsam_sam3x8e_gcc_rel.a(pwmc.o)
PWMC_EnableChannel                                ../../lib/ArduinoCore-sam/variants/arduino_due_x/libsam_sam3x8e_gcc_rel.a(pwmc.o)
                                                  ../../lib/ArduinoCore-sam/out/sam.a(wiring_analog.o)
PWMC_EnableChannelIt                              ../../lib/ArduinoCore-sam/variants/arduino_due_x/libsam_sam3x8e_gcc_rel.a(pwmc.o)
PWMC_EnableFaultProtection                        ../../lib/ArduinoCore-sam/variants/arduino_due_x/libsam_sam3x8e_gcc_rel.a(pwmc.o)
PWMC_EnableIt                                     ../../lib/ArduinoCore-sam/variants/arduino_due_x/libsam_sam3x8e_gcc_rel.a(pwmc.o)
PWMC_EnableOverrideOutput                         ../../lib/ArduinoCore-sam/variants/arduino_due_x/libsam_sam3x8e_gcc_rel.a(pwmc.o)
PWMC_FaultClear                                   ../../lib/ArduinoCore-sam/variants/arduino_due_x/libsam_sam3x8e_gcc_rel.a(pwmc.o)
PWMC_SetDeadTime                                  ../../lib/ArduinoCore-sam/variants/arduino_due_x/libsam_sam3x8e_gcc_rel.a(pwmc.o)
PWMC_SetDutyCycle                                 ../../lib/ArduinoCore-sam/variants/arduino_due_x/libsam_sam3x8e_gcc_rel.a(pwmc.o)
                                                  ../../lib/ArduinoCore-sam/out/sam.a(wiring_analog.o)
PWMC_SetFaultMode                                 ../../lib/ArduinoCore-sam/variants/arduino_due_x/libsam_sam3x8e_gcc_rel.a(pwmc.o)
PWMC_SetFaultProtectionValue                      ../../lib/ArduinoCore-sam/variants/arduino_due_x/libsam_sam3x8e_gcc_rel.a(pwmc.o)
PWMC_SetOverrideValue                             ../../lib/ArduinoCore-sam/variants/arduino_due_x/libsam_sam3x8e_gcc_rel.a(pwmc.o)
PWMC_SetPeriod                                    ../../lib/ArduinoCore-sam/variants/arduino_due_x/libsam_sam3x8e_gcc_rel.a(pwmc.o)
                                                  ../../lib/ArduinoCore-sam/out/sam.a(wiring_analog.o)
PWMC_SetSyncChannelUpdatePeriod                   ../../lib/ArduinoCore-sam/variants/arduino_due_x/libsam_sam3x8e_gcc_rel.a(pwmc.o)
PWMC_SetSyncChannelUpdateUnlock                   ../../lib/ArduinoCore-sam/variants/arduino_due_x/libsam_sam3x8e_gcc_rel.a(pwmc.o)
PWMC_WriteBuffer                                  ../../lib/ArduinoCore-sam/variants/arduino_due_x/libsam_sam3x8e_gcc_rel.a(pwmc.o)
PWM_Handler                                       ../../lib/ArduinoCore-sam/out/sam.a(cortex_handlers.o)
                                                  ../../lib/ArduinoCore-sam/variants/arduino_due_x/libsam_sam3x8e_gcc_rel.a(startup_sam3xa.o)
PendSV_Handler                                    ../../lib/ArduinoCore-sam/out/sam.a(cortex_handlers.o)
                                                  ../../lib/ArduinoCore-sam/variants/arduino_due_x/libsam_sam3x8e_gcc_rel.a(startup_sam3xa.o)
Print::print(Printable const&)                    ../../lib/ArduinoCore-sam/out/sam.a(Print.o)
Print::print(String const&)                       ../../lib/ArduinoCore-sam/out/sam.a(Print.o)
Print::print(__FlashStringHelper const*)          ../../lib/ArduinoCore-sam/out/sam.a(Print.o)
Print::print(char const*)                         ../../lib/ArduinoCore-sam/out/sam.a(Print.o)
Print::print(char)                                ../../lib/ArduinoCore-sam/out/sam.a(Print.o)
Print::print(double, int)                         ../../lib/ArduinoCore-sam/out/sam.a(Print.o)
Print::print(int, int)                            ../../lib/ArduinoCore-sam/out/sam.a(Print.o)
Print::print(long, int)                           ../../lib/ArduinoCore-sam/out/sam.a(Print.o)
Print::print(unsigned char, int)                  ../../lib/ArduinoCore-sam/out/sam.a(Print.o)
Print::print(unsigned int, int)                   ../../lib/ArduinoCore-sam/out/sam.a(Print.o)
Print::print(unsigned long, int)                  ../../lib/ArduinoCore-sam/out/sam.a(Print.o)
Print::printFloat(double, unsigned char)          ../../lib/ArduinoCore-sam/out/sam.a(Print.o)
Print::printNumber(unsigned long, unsigned char)  ../../lib/ArduinoCore-sam/out/sam.a(Print.o)
Print::println()                                  ../../lib/ArduinoCore-sam/out/sam.a(Print.o)
Print::println(Printable const&)                  ../../lib/ArduinoCore-sam/out/sam.a(Print.o)
Print::println(String const&)                     ../../lib/ArduinoCore-sam/out/sam.a(Print.o)
Print::println(__FlashStringHelper const*)        ../../lib/ArduinoCore-sam/out/sam.a(Print.o)
Print::println(char const*)                       ../../lib/ArduinoCore-sam/out/sam.a(Print.o)
Print::println(char)                              ../../lib/ArduinoCore-sam/out/sam.a(Print.o)
Print::println(double, int)                       ../../lib/ArduinoCore-sam/out/sam.a(Print.o)
Print::println(int, int)                          ../../lib/ArduinoCore-sam/out/sam.a(Print.o)
Print::println(long, int)                         ../../lib/ArduinoCore-sam/out/sam.a(Print.o)
Print::println(unsigned char, int)                ../../lib/ArduinoCore-sam/out/sam.a(Print.o)
Print::println(unsigned int, int)                 ../../lib/ArduinoCore-sam/out/sam.a(Print.o)
Print::println(unsigned long, int)                ../../lib/ArduinoCore-sam/out/sam.a(Print.o)
Print::write(char const*)                         ../../lib/ArduinoCore-sam/out/sam.a(Print.o)
Print::write(unsigned char const*, unsigned int)  ../../lib/ArduinoCore-sam/out/sam.a(Print.o)
                                                  ../../lib/ArduinoCore-sam/out/sam.a(USARTClass.o)
                                                  ../../lib/ArduinoCore-sam/out/sam.a(UARTClass.o)
RSTC_Handler                                      ../../lib/ArduinoCore-sam/out/sam.a(cortex_handlers.o)
                                                  ../../lib/ArduinoCore-sam/variants/arduino_due_x/libsam_sam3x8e_gcc_rel.a(startup_sam3xa.o)
RTC_Handler                                       ../../lib/ArduinoCore-sam/out/sam.a(cortex_handlers.o)
                                                  ../../lib/ArduinoCore-sam/variants/arduino_due_x/libsam_sam3x8e_gcc_rel.a(startup_sam3xa.o)
RTT_Handler                                       ../../lib/ArduinoCore-sam/out/sam.a(cortex_handlers.o)
                                                  ../../lib/ArduinoCore-sam/variants/arduino_due_x/libsam_sam3x8e_gcc_rel.a(startup_sam3xa.o)
Reset_Handler                                     ../../lib/ArduinoCore-sam/variants/arduino_due_x/libsam_sam3x8e_gcc_rel.a(startup_sam3xa.o)
RingBuffer::RingBuffer()                          ../../lib/ArduinoCore-sam/out/sam.a(RingBuffer.o)
RingBuffer::RingBuffer()                          ../../lib/ArduinoCore-sam/out/sam.a(RingBuffer.o)
                                                  ../../lib/ArduinoCore-sam/out/sam.a(variant.o)
                                                  build/asciz.a(main.o)
RingBuffer::store_char(unsigned char)             ../../lib/ArduinoCore-sam/out/sam.a(RingBuffer.o)
                                                  ../../lib/ArduinoCore-sam/out/sam.a(UARTClass.o)
SMC_Handler                                       ../../lib/ArduinoCore-sam/out/sam.a(cortex_handlers.o)
                                                  ../../lib/ArduinoCore-sam/variants/arduino_due_x/libsam_sam3x8e_gcc_rel.a(startup_sam3xa.o)
SPI0_Handler                                      ../../lib/ArduinoCore-sam/out/sam.a(cortex_handlers.o)
                                                  ../../lib/ArduinoCore-sam/variants/arduino_due_x/libsam_sam3x8e_gcc_rel.a(startup_sam3xa.o)
SSC_Handler                                       ../../lib/ArduinoCore-sam/out/sam.a(cortex_handlers.o)
                                                  ../../lib/ArduinoCore-sam/variants/arduino_due_x/libsam_sam3x8e_gcc_rel.a(startup_sam3xa.o)
SUPC_Handler                                      ../../lib/ArduinoCore-sam/out/sam.a(cortex_handlers.o)
                                                  ../../lib/ArduinoCore-sam/variants/arduino_due_x/libsam_sam3x8e_gcc_rel.a(startup_sam3xa.o)
SVC_Handler                                       ../../lib/ArduinoCore-sam/out/sam.a(cortex_handlers.o)
                                                  ../../lib/ArduinoCore-sam/variants/arduino_due_x/libsam_sam3x8e_gcc_rel.a(startup_sam3xa.o)
Serial                                            ../../lib/ArduinoCore-sam/out/sam.a(variant.o)
Serial1                                           ../../lib/ArduinoCore-sam/out/sam.a(variant.o)
Serial2                                           ../../lib/ArduinoCore-sam/out/sam.a(variant.o)
Serial3                                           ../../lib/ArduinoCore-sam/out/sam.a(variant.o)
Sleep                                             ../../lib/ArduinoCore-sam/variants/arduino_due_x/libsam_sam3x8e_gcc_rel.a(timetick.o)
SysTick_Handler                                   ../../lib/ArduinoCore-sam/out/sam.a(cortex_handlers.o)
                                                  ../../lib/ArduinoCore-sam/variants/arduino_due_x/libsam_sam3x8e_gcc_rel.a(startup_sam3xa.o)
SystemCoreClock                                   ../../lib/ArduinoCore-sam/variants/arduino_due_x/libsam_sam3x8e_gcc_rel.a(system_sam3xa.o)
                                                  ../../lib/ArduinoCore-sam/out/sam.a(variant.o)
                                                  ../../lib/ArduinoCore-sam/out/sam.a(UARTClass.o)
SystemCoreClockUpdate                             ../../lib/ArduinoCore-sam/variants/arduino_due_x/libsam_sam3x8e_gcc_rel.a(system_sam3xa.o)
SystemInit                                        ../../lib/ArduinoCore-sam/variants/arduino_due_x/libsam_sam3x8e_gcc_rel.a(system_sam3xa.o)
                                                  ../../lib/ArduinoCore-sam/out/sam.a(variant.o)
TC0_Handler                                       ../../lib/ArduinoCore-sam/out/sam.a(cortex_handlers.o)
                                                  ../../lib/ArduinoCore-sam/variants/arduino_due_x/libsam_sam3x8e_gcc_rel.a(startup_sam3xa.o)
TC1_Handler                                       ../../lib/ArduinoCore-sam/out/sam.a(cortex_handlers.o)
                                                  ../../lib/ArduinoCore-sam/variants/arduino_due_x/libsam_sam3x8e_gcc_rel.a(startup_sam3xa.o)
TC2_Handler                                       ../../lib/ArduinoCore-sam/out/sam.a(cortex_handlers.o)
                                                  ../../lib/ArduinoCore-sam/variants/arduino_due_x/libsam_sam3x8e_gcc_rel.a(startup_sam3xa.o)
TC3_Handler                                       ../../lib/ArduinoCore-sam/out/sam.a(cortex_handlers.o)
                                                  ../../lib/ArduinoCore-sam/variants/arduino_due_x/libsam_sam3x8e_gcc_rel.a(startup_sam3xa.o)
TC4_Handler                                       ../../lib/ArduinoCore-sam/out/sam.a(cortex_handlers.o)
                                                  ../../lib/ArduinoCore-sam/variants/arduino_due_x/libsam_sam3x8e_gcc_rel.a(startup_sam3xa.o)
TC5_Handler                                       ../../lib/ArduinoCore-sam/out/sam.a(cortex_handlers.o)
                                                  ../../lib/ArduinoCore-sam/variants/arduino_due_x/libsam_sam3x8e_gcc_rel.a(startup_sam3xa.o)
TC6_Handler                                       ../../lib/ArduinoCore-sam/out/sam.a(cortex_handlers.o)
                                                  ../../lib/ArduinoCore-sam/variants/arduino_due_x/libsam_sam3x8e_gcc_rel.a(startup_sam3xa.o)
TC7_Handler                                       ../../lib/ArduinoCore-sam/out/sam.a(cortex_handlers.o)
                                                  ../../lib/ArduinoCore-sam/variants/arduino_due_x/libsam_sam3x8e_gcc_rel.a(startup_sam3xa.o)
TC8_Handler                                       ../../lib/ArduinoCore-sam/out/sam.a(cortex_handlers.o)
                                                  ../../lib/ArduinoCore-sam/variants/arduino_due_x/libsam_sam3x8e_gcc_rel.a(startup_sam3xa.o)
TC_Configure                                      ../../lib/ArduinoCore-sam/variants/arduino_due_x/libsam_sam3x8e_gcc_rel.a(tc.o)
                                                  ../../lib/ArduinoCore-sam/out/sam.a(wiring_analog.o)
TC_FindMckDivisor                                 ../../lib/ArduinoCore-sam/variants/arduino_due_x/libsam_sam3x8e_gcc_rel.a(tc.o)
TC_GetStatus                                      ../../lib/ArduinoCore-sam/variants/arduino_due_x/libsam_sam3x8e_gcc_rel.a(tc.o)
TC_ReadCV                                         ../../lib/ArduinoCore-sam/variants/arduino_due_x/libsam_sam3x8e_gcc_rel.a(tc.o)
TC_SetRA                                          ../../lib/ArduinoCore-sam/variants/arduino_due_x/libsam_sam3x8e_gcc_rel.a(tc.o)
                                                  ../../lib/ArduinoCore-sam/out/sam.a(wiring_analog.o)
TC_SetRB                                          ../../lib/ArduinoCore-sam/variants/arduino_due_x/libsam_sam3x8e_gcc_rel.a(tc.o)
                                                  ../../lib/ArduinoCore-sam/out/sam.a(wiring_analog.o)
TC_SetRC                                          ../../lib/ArduinoCore-sam/variants/arduino_due_x/libsam_sam3x8e_gcc_rel.a(tc.o)
                                                  ../../lib/ArduinoCore-sam/out/sam.a(wiring_analog.o)
TC_Start                                          ../../lib/ArduinoCore-sam/variants/arduino_due_x/libsam_sam3x8e_gcc_rel.a(tc.o)
                                                  ../../lib/ArduinoCore-sam/out/sam.a(wiring_analog.o)
TC_Stop                                           ../../lib/ArduinoCore-sam/variants/arduino_due_x/libsam_sam3x8e_gcc_rel.a(tc.o)
TRNG_Handler                                      ../../lib/ArduinoCore-sam/out/sam.a(cortex_handlers.o)
                                                  ../../lib/ArduinoCore-sam/variants/arduino_due_x/libsam_sam3x8e_gcc_rel.a(startup_sam3xa.o)
TWI0_Handler                                      ../../lib/ArduinoCore-sam/out/sam.a(cortex_handlers.o)
                                                  ../../lib/ArduinoCore-sam/variants/arduino_due_x/libsam_sam3x8e_gcc_rel.a(startup_sam3xa.o)
TWI1_Handler                                      ../../lib/ArduinoCore-sam/out/sam.a(cortex_handlers.o)
                                                  ../../lib/ArduinoCore-sam/variants/arduino_due_x/libsam_sam3x8e_gcc_rel.a(startup_sam3xa.o)
TimeTick_Configure                                ../../lib/ArduinoCore-sam/variants/arduino_due_x/libsam_sam3x8e_gcc_rel.a(timetick.o)
TimeTick_Increment                                ../../lib/ArduinoCore-sam/variants/arduino_due_x/libsam_sam3x8e_gcc_rel.a(timetick.o)
                                                  ../../lib/ArduinoCore-sam/out/sam.a(cortex_handlers.o)
UARTClass::IrqHandler()                           ../../lib/ArduinoCore-sam/out/sam.a(UARTClass.o)
                                                  ../../lib/ArduinoCore-sam/out/sam.a(variant.o)
UARTClass::UARTClass(Uart*, IRQn, unsigned long, RingBuffer*, RingBuffer*) ../../lib/ArduinoCore-sam/out/sam.a(UARTClass.o)
                                                  ../../lib/ArduinoCore-sam/out/sam.a(USARTClass.o)
UARTClass::UARTClass(Uart*, IRQn, unsigned long, RingBuffer*, RingBuffer*) ../../lib/ArduinoCore-sam/out/sam.a(UARTClass.o)
                                                  ../../lib/ArduinoCore-sam/out/sam.a(variant.o)
                                                  build/asciz.a(main.o)
UARTClass::available()                            ../../lib/ArduinoCore-sam/out/sam.a(UARTClass.o)
                                                  ../../lib/ArduinoCore-sam/out/sam.a(USARTClass.o)
                                                  ../../lib/ArduinoCore-sam/out/sam.a(variant.o)
UARTClass::availableForWrite()                    ../../lib/ArduinoCore-sam/out/sam.a(UARTClass.o)
UARTClass::begin(unsigned long)                   ../../lib/ArduinoCore-sam/out/sam.a(UARTClass.o)
                                                  build/asciz.a(main.o)
UARTClass::begin(unsigned long, UARTClass::UARTModes) ../../lib/ArduinoCore-sam/out/sam.a(UARTClass.o)
UARTClass::end()                                  ../../lib/ArduinoCore-sam/out/sam.a(UARTClass.o)
                                                  ../../lib/ArduinoCore-sam/out/sam.a(USARTClass.o)
UARTClass::flush()                                ../../lib/ArduinoCore-sam/out/sam.a(UARTClass.o)
                                                  ../../lib/ArduinoCore-sam/out/sam.a(USARTClass.o)
UARTClass::getInterruptPriority()                 ../../lib/ArduinoCore-sam/out/sam.a(UARTClass.o)
UARTClass::init(unsigned long, unsigned long)     ../../lib/ArduinoCore-sam/out/sam.a(UARTClass.o)
                                                  ../../lib/ArduinoCore-sam/out/sam.a(USARTClass.o)
UARTClass::operator bool()                        ../../lib/ArduinoCore-sam/out/sam.a(UARTClass.o)
                                                  ../../lib/ArduinoCore-sam/out/sam.a(USARTClass.o)
UARTClass::peek()                                 ../../lib/ArduinoCore-sam/out/sam.a(UARTClass.o)
                                                  ../../lib/ArduinoCore-sam/out/sam.a(USARTClass.o)
UARTClass::read()                                 ../../lib/ArduinoCore-sam/out/sam.a(UARTClass.o)
                                                  ../../lib/ArduinoCore-sam/out/sam.a(USARTClass.o)
UARTClass::setInterruptPriority(unsigned long)    ../../lib/ArduinoCore-sam/out/sam.a(UARTClass.o)
UARTClass::write(unsigned char)                   ../../lib/ArduinoCore-sam/out/sam.a(UARTClass.o)
                                                  ../../lib/ArduinoCore-sam/out/sam.a(USARTClass.o)
UART_Handler                                      ../../lib/ArduinoCore-sam/out/sam.a(variant.o)
                                                  ../../lib/ArduinoCore-sam/out/sam.a(cortex_handlers.o)
                                                  ../../lib/ArduinoCore-sam/variants/arduino_due_x/libsam_sam3x8e_gcc_rel.a(startup_sam3xa.o)
UOTGHS_Handler                                    ../../lib/ArduinoCore-sam/variants/arduino_due_x/libsam_sam3x8e_gcc_rel.a(uotghs.o)
                                                  ../../lib/ArduinoCore-sam/variants/arduino_due_x/libsam_sam3x8e_gcc_rel.a(startup_sam3xa.o)
USART0_Handler                                    ../../lib/ArduinoCore-sam/out/sam.a(variant.o)
                                                  ../../lib/ArduinoCore-sam/out/sam.a(cortex_handlers.o)
                                                  ../../lib/ArduinoCore-sam/variants/arduino_due_x/libsam_sam3x8e_gcc_rel.a(startup_sam3xa.o)
USART1_Handler                                    ../../lib/ArduinoCore-sam/out/sam.a(variant.o)
                                                  ../../lib/ArduinoCore-sam/out/sam.a(cortex_handlers.o)
                                                  ../../lib/ArduinoCore-sam/variants/arduino_due_x/libsam_sam3x8e_gcc_rel.a(startup_sam3xa.o)
USART2_Handler                                    ../../lib/ArduinoCore-sam/out/sam.a(cortex_handlers.o)
                                                  ../../lib/ArduinoCore-sam/variants/arduino_due_x/libsam_sam3x8e_gcc_rel.a(startup_sam3xa.o)
USART3_Handler                                    ../../lib/ArduinoCore-sam/out/sam.a(variant.o)
                                                  ../../lib/ArduinoCore-sam/out/sam.a(cortex_handlers.o)
                                                  ../../lib/ArduinoCore-sam/variants/arduino_due_x/libsam_sam3x8e_gcc_rel.a(startup_sam3xa.o)
USARTClass::USARTClass(Usart*, IRQn, unsigned long, RingBuffer*, RingBuffer*) ../../lib/ArduinoCore-sam/out/sam.a(USARTClass.o)
                                                  ../../lib/ArduinoCore-sam/out/sam.a(variant.o)
USARTClass::USARTClass(Usart*, IRQn, unsigned long, RingBuffer*, RingBuffer*) ../../lib/ArduinoCore-sam/out/sam.a(USARTClass.o)
USARTClass::begin(unsigned long)                  ../../lib/ArduinoCore-sam/out/sam.a(USARTClass.o)
USARTClass::begin(unsigned long, UARTClass::UARTModes) ../../lib/ArduinoCore-sam/out/sam.a(USARTClass.o)
USARTClass::begin(unsigned long, USARTClass::USARTModes) ../../lib/ArduinoCore-sam/out/sam.a(USARTClass.o)
UsageFault_Handler                                ../../lib/ArduinoCore-sam/out/sam.a(cortex_handlers.o)
                                                  ../../lib/ArduinoCore-sam/variants/arduino_due_x/libsam_sam3x8e_gcc_rel.a(startup_sam3xa.o)
WDT_Disable                                       ../../lib/ArduinoCore-sam/variants/arduino_due_x/libsam_sam3x8e_gcc_rel.a(wdt.o)
                                                  ../../lib/ArduinoCore-sam/out/sam.a(watchdog.o)
WDT_Enable                                        ../../lib/ArduinoCore-sam/variants/arduino_due_x/libsam_sam3x8e_gcc_rel.a(wdt.o)
                                                  ../../lib/ArduinoCore-sam/out/sam.a(watchdog.o)
WDT_GetPeriod                                     ../../lib/ArduinoCore-sam/variants/arduino_due_x/libsam_sam3x8e_gcc_rel.a(wdt.o)
WDT_GetStatus                                     ../../lib/ArduinoCore-sam/variants/arduino_due_x/libsam_sam3x8e_gcc_rel.a(wdt.o)
WDT_Handler                                       ../../lib/ArduinoCore-sam/out/sam.a(cortex_handlers.o)
                                                  ../../lib/ArduinoCore-sam/variants/arduino_due_x/libsam_sam3x8e_gcc_rel.a(startup_sam3xa.o)
WDT_Restart                                       ../../lib/ArduinoCore-sam/variants/arduino_due_x/libsam_sam3x8e_gcc_rel.a(wdt.o)
                                                  ../../lib/ArduinoCore-sam/out/sam.a(watchdog.o)
Wait                                              ../../lib/ArduinoCore-sam/variants/arduino_due_x/libsam_sam3x8e_gcc_rel.a(timetick.o)
_Balloc                                           c:/users/roxanne/desktop/programming/adkit/tools/arm-none-eabi-gcc/9.3.1-2020q2-windows/bin/../lib/gcc/arm-none-eabi/9.3.1/../../../../arm-none-eabi/lib/thumb/v7-m/nofp\libc.a(lib_a-mprec.o)
                                                  c:/users/roxanne/desktop/programming/adkit/tools/arm-none-eabi-gcc/9.3.1-2020q2-windows/bin/../lib/gcc/arm-none-eabi/9.3.1/../../../../arm-none-eabi/lib/thumb/v7-m/nofp\libc.a(lib_a-dtoa.o)
_Bfree                                            c:/users/roxanne/desktop/programming/adkit/tools/arm-none-eabi-gcc/9.3.1-2020q2-windows/bin/../lib/gcc/arm-none-eabi/9.3.1/../../../../arm-none-eabi/lib/thumb/v7-m/nofp\libc.a(lib_a-mprec.o)
                                                  c:/users/roxanne/desktop/programming/adkit/tools/arm-none-eabi-gcc/9.3.1-2020q2-windows/bin/../lib/gcc/arm-none-eabi/9.3.1/../../../../arm-none-eabi/lib/thumb/v7-m/nofp\libc.a(lib_a-dtoa.o)
_PathLocale                                       c:/users/roxanne/desktop/programming/adkit/tools/arm-none-eabi-gcc/9.3.1-2020q2-windows/bin/../lib/gcc/arm-none-eabi/9.3.1/../../../../arm-none-eabi/lib/thumb/v7-m/nofp\libc.a(lib_a-locale.o)
_Unwind_Backtrace                                 c:/users/roxanne/desktop/programming/adkit/tools/arm-none-eabi-gcc/9.3.1-2020q2-windows/bin/../lib/gcc/arm-none-eabi/9.3.1/thumb/v7-m/nofp\libgcc.a(libunwind.o)
_Unwind_Complete                                  c:/users/roxanne/desktop/programming/adkit/tools/arm-none-eabi-gcc/9.3.1-2020q2-windows/bin/../lib/gcc/arm-none-eabi/9.3.1/thumb/v7-m/nofp\libgcc.a(unwind-arm.o)
_Unwind_DeleteException                           c:/users/roxanne/desktop/programming/adkit/tools/arm-none-eabi-gcc/9.3.1-2020q2-windows/bin/../lib/gcc/arm-none-eabi/9.3.1/thumb/v7-m/nofp\libgcc.a(unwind-arm.o)
_Unwind_ForcedUnwind                              c:/users/roxanne/desktop/programming/adkit/tools/arm-none-eabi-gcc/9.3.1-2020q2-windows/bin/../lib/gcc/arm-none-eabi/9.3.1/thumb/v7-m/nofp\libgcc.a(libunwind.o)
_Unwind_GetCFA                                    c:/users/roxanne/desktop/programming/adkit/tools/arm-none-eabi-gcc/9.3.1-2020q2-windows/bin/../lib/gcc/arm-none-eabi/9.3.1/thumb/v7-m/nofp\libgcc.a(unwind-arm.o)
_Unwind_GetDataRelBase                            c:/users/roxanne/desktop/programming/adkit/tools/arm-none-eabi-gcc/9.3.1-2020q2-windows/bin/../lib/gcc/arm-none-eabi/9.3.1/thumb/v7-m/nofp\libgcc.a(pr-support.o)
_Unwind_GetLanguageSpecificData                   c:/users/roxanne/desktop/programming/adkit/tools/arm-none-eabi-gcc/9.3.1-2020q2-windows/bin/../lib/gcc/arm-none-eabi/9.3.1/thumb/v7-m/nofp\libgcc.a(pr-support.o)
_Unwind_GetRegionStart                            c:/users/roxanne/desktop/programming/adkit/tools/arm-none-eabi-gcc/9.3.1-2020q2-windows/bin/../lib/gcc/arm-none-eabi/9.3.1/thumb/v7-m/nofp\libgcc.a(pr-support.o)
_Unwind_GetTextRelBase                            c:/users/roxanne/desktop/programming/adkit/tools/arm-none-eabi-gcc/9.3.1-2020q2-windows/bin/../lib/gcc/arm-none-eabi/9.3.1/thumb/v7-m/nofp\libgcc.a(pr-support.o)
_Unwind_RaiseException                            c:/users/roxanne/desktop/programming/adkit/tools/arm-none-eabi-gcc/9.3.1-2020q2-windows/bin/../lib/gcc/arm-none-eabi/9.3.1/thumb/v7-m/nofp\libgcc.a(libunwind.o)
_Unwind_Resume                                    c:/users/roxanne/desktop/programming/adkit/tools/arm-none-eabi-gcc/9.3.1-2020q2-windows/bin/../lib/gcc/arm-none-eabi/9.3.1/thumb/v7-m/nofp\libgcc.a(libunwind.o)
_Unwind_Resume_or_Rethrow                         c:/users/roxanne/desktop/programming/adkit/tools/arm-none-eabi-gcc/9.3.1-2020q2-windows/bin/../lib/gcc/arm-none-eabi/9.3.1/thumb/v7-m/nofp\libgcc.a(libunwind.o)
_Unwind_VRS_Get                                   c:/users/roxanne/desktop/programming/adkit/tools/arm-none-eabi-gcc/9.3.1-2020q2-windows/bin/../lib/gcc/arm-none-eabi/9.3.1/thumb/v7-m/nofp\libgcc.a(unwind-arm.o)
                                                  c:/users/roxanne/desktop/programming/adkit/tools/arm-none-eabi-gcc/9.3.1-2020q2-windows/bin/../lib/gcc/arm-none-eabi/9.3.1/thumb/v7-m/nofp\libgcc.a(pr-support.o)
_Unwind_VRS_Pop                                   c:/users/roxanne/desktop/programming/adkit/tools/arm-none-eabi-gcc/9.3.1-2020q2-windows/bin/../lib/gcc/arm-none-eabi/9.3.1/thumb/v7-m/nofp\libgcc.a(unwind-arm.o)
                                                  c:/users/roxanne/desktop/programming/adkit/tools/arm-none-eabi-gcc/9.3.1-2020q2-windows/bin/../lib/gcc/arm-none-eabi/9.3.1/thumb/v7-m/nofp\libgcc.a(pr-support.o)
_Unwind_VRS_Set                                   c:/users/roxanne/desktop/programming/adkit/tools/arm-none-eabi-gcc/9.3.1-2020q2-windows/bin/../lib/gcc/arm-none-eabi/9.3.1/thumb/v7-m/nofp\libgcc.a(unwind-arm.o)
                                                  c:/users/roxanne/desktop/programming/adkit/tools/arm-none-eabi-gcc/9.3.1-2020q2-windows/bin/../lib/gcc/arm-none-eabi/9.3.1/thumb/v7-m/nofp\libgcc.a(pr-support.o)
___Unwind_Backtrace                               c:/users/roxanne/desktop/programming/adkit/tools/arm-none-eabi-gcc/9.3.1-2020q2-windows/bin/../lib/gcc/arm-none-eabi/9.3.1/thumb/v7-m/nofp\libgcc.a(libunwind.o)
___Unwind_ForcedUnwind                            c:/users/roxanne/desktop/programming/adkit/tools/arm-none-eabi-gcc/9.3.1-2020q2-windows/bin/../lib/gcc/arm-none-eabi/9.3.1/thumb/v7-m/nofp\libgcc.a(libunwind.o)
___Unwind_RaiseException                          c:/users/roxanne/desktop/programming/adkit/tools/arm-none-eabi-gcc/9.3.1-2020q2-windows/bin/../lib/gcc/arm-none-eabi/9.3.1/thumb/v7-m/nofp\libgcc.a(libunwind.o)
___Unwind_Resume                                  c:/users/roxanne/desktop/programming/adkit/tools/arm-none-eabi-gcc/9.3.1-2020q2-windows/bin/../lib/gcc/arm-none-eabi/9.3.1/thumb/v7-m/nofp\libgcc.a(libunwind.o)
___Unwind_Resume_or_Rethrow                       c:/users/roxanne/desktop/programming/adkit/tools/arm-none-eabi-gcc/9.3.1-2020q2-windows/bin/../lib/gcc/arm-none-eabi/9.3.1/thumb/v7-m/nofp\libgcc.a(libunwind.o)
__adddf3                                          c:/users/roxanne/desktop/programming/adkit/tools/arm-none-eabi-gcc/9.3.1-2020q2-windows/bin/../lib/gcc/arm-none-eabi/9.3.1/thumb/v7-m/nofp\libgcc.a(_arm_addsubdf3.o)
__aeabi_cdcmpeq                                   c:/users/roxanne/desktop/programming/adkit/tools/arm-none-eabi-gcc/9.3.1-2020q2-windows/bin/../lib/gcc/arm-none-eabi/9.3.1/thumb/v7-m/nofp\libgcc.a(_arm_cmpdf2.o)
__aeabi_cdcmple                                   c:/users/roxanne/desktop/programming/adkit/tools/arm-none-eabi-gcc/9.3.1-2020q2-windows/bin/../lib/gcc/arm-none-eabi/9.3.1/thumb/v7-m/nofp\libgcc.a(_arm_cmpdf2.o)
__aeabi_cdrcmple                                  c:/users/roxanne/desktop/programming/adkit/tools/arm-none-eabi-gcc/9.3.1-2020q2-windows/bin/../lib/gcc/arm-none-eabi/9.3.1/thumb/v7-m/nofp\libgcc.a(_arm_cmpdf2.o)
__aeabi_d2iz                                      c:/users/roxanne/desktop/programming/adkit/tools/arm-none-eabi-gcc/9.3.1-2020q2-windows/bin/../lib/gcc/arm-none-eabi/9.3.1/thumb/v7-m/nofp\libgcc.a(_arm_fixdfsi.o)
                                                  c:/users/roxanne/desktop/programming/adkit/tools/arm-none-eabi-gcc/9.3.1-2020q2-windows/bin/../lib/gcc/arm-none-eabi/9.3.1/../../../../arm-none-eabi/lib/thumb/v7-m/nofp\libc.a(lib_a-dtoa.o)
                                                  c:/users/roxanne/desktop/programming/adkit/tools/arm-none-eabi-gcc/9.3.1-2020q2-windows/bin/../lib/gcc/arm-none-eabi/9.3.1/../../../../arm-none-eabi/lib/thumb/v7-m/nofp\libc.a(lib_a-vfprintf.o)
__aeabi_d2uiz                                     c:/users/roxanne/desktop/programming/adkit/tools/arm-none-eabi-gcc/9.3.1-2020q2-windows/bin/../lib/gcc/arm-none-eabi/9.3.1/thumb/v7-m/nofp\libgcc.a(_arm_fixunsdfsi.o)
                                                  ../../lib/ArduinoCore-sam/out/sam.a(Print.o)
__aeabi_dadd                                      c:/users/roxanne/desktop/programming/adkit/tools/arm-none-eabi-gcc/9.3.1-2020q2-windows/bin/../lib/gcc/arm-none-eabi/9.3.1/thumb/v7-m/nofp\libgcc.a(_arm_addsubdf3.o)
                                                  c:/users/roxanne/desktop/programming/adkit/tools/arm-none-eabi-gcc/9.3.1-2020q2-windows/bin/../lib/gcc/arm-none-eabi/9.3.1/../../../../arm-none-eabi/lib/thumb/v7-m/nofp\libc.a(lib_a-dtoa.o)
                                                  ../../lib/ArduinoCore-sam/out/sam.a(Print.o)
__aeabi_dcmpeq                                    c:/users/roxanne/desktop/programming/adkit/tools/arm-none-eabi-gcc/9.3.1-2020q2-windows/bin/../lib/gcc/arm-none-eabi/9.3.1/thumb/v7-m/nofp\libgcc.a(_arm_cmpdf2.o)
                                                  c:/users/roxanne/desktop/programming/adkit/tools/arm-none-eabi-gcc/9.3.1-2020q2-windows/bin/../lib/gcc/arm-none-eabi/9.3.1/../../../../arm-none-eabi/lib/thumb/v7-m/nofp\libc.a(lib_a-dtoa.o)
                                                  c:/users/roxanne/desktop/programming/adkit/tools/arm-none-eabi-gcc/9.3.1-2020q2-windows/bin/../lib/gcc/arm-none-eabi/9.3.1/../../../../arm-none-eabi/lib/thumb/v7-m/nofp\libc.a(lib_a-vfprintf.o)
__aeabi_dcmpge                                    c:/users/roxanne/desktop/programming/adkit/tools/arm-none-eabi-gcc/9.3.1-2020q2-windows/bin/../lib/gcc/arm-none-eabi/9.3.1/thumb/v7-m/nofp\libgcc.a(_arm_cmpdf2.o)
__aeabi_dcmpgt                                    c:/users/roxanne/desktop/programming/adkit/tools/arm-none-eabi-gcc/9.3.1-2020q2-windows/bin/../lib/gcc/arm-none-eabi/9.3.1/thumb/v7-m/nofp\libgcc.a(_arm_cmpdf2.o)
                                                  c:/users/roxanne/desktop/programming/adkit/tools/arm-none-eabi-gcc/9.3.1-2020q2-windows/bin/../lib/gcc/arm-none-eabi/9.3.1/../../../../arm-none-eabi/lib/thumb/v7-m/nofp\libc.a(lib_a-dtoa.o)
                                                  c:/users/roxanne/desktop/programming/adkit/tools/arm-none-eabi-gcc/9.3.1-2020q2-windows/bin/../lib/gcc/arm-none-eabi/9.3.1/../../../../arm-none-eabi/lib/thumb/v7-m/nofp\libc.a(lib_a-vfprintf.o)
                                                  ../../lib/ArduinoCore-sam/out/sam.a(Print.o)
__aeabi_dcmple                                    c:/users/roxanne/desktop/programming/adkit/tools/arm-none-eabi-gcc/9.3.1-2020q2-windows/bin/../lib/gcc/arm-none-eabi/9.3.1/thumb/v7-m/nofp\libgcc.a(_arm_cmpdf2.o)
                                                  c:/users/roxanne/desktop/programming/adkit/tools/arm-none-eabi-gcc/9.3.1-2020q2-windows/bin/../lib/gcc/arm-none-eabi/9.3.1/../../../../arm-none-eabi/lib/thumb/v7-m/nofp\libc.a(lib_a-dtoa.o)
                                                  c:/users/roxanne/desktop/programming/adkit/tools/arm-none-eabi-gcc/9.3.1-2020q2-windows/bin/../lib/gcc/arm-none-eabi/9.3.1/../../../../arm-none-eabi/lib/thumb/v7-m/nofp\libc.a(lib_a-vfprintf.o)
                                                  ../../lib/ArduinoCore-sam/out/sam.a(Print.o)
__aeabi_dcmplt                                    c:/users/roxanne/desktop/programming/adkit/tools/arm-none-eabi-gcc/9.3.1-2020q2-windows/bin/../lib/gcc/arm-none-eabi/9.3.1/thumb/v7-m/nofp\libgcc.a(_arm_cmpdf2.o)
                                                  c:/users/roxanne/desktop/programming/adkit/tools/arm-none-eabi-gcc/9.3.1-2020q2-windows/bin/../lib/gcc/arm-none-eabi/9.3.1/../../../../arm-none-eabi/lib/thumb/v7-m/nofp\libc.a(lib_a-dtoa.o)
                                                  c:/users/roxanne/desktop/programming/adkit/tools/arm-none-eabi-gcc/9.3.1-2020q2-windows/bin/../lib/gcc/arm-none-eabi/9.3.1/../../../../arm-none-eabi/lib/thumb/v7-m/nofp\libc.a(lib_a-vfprintf.o)
                                                  ../../lib/ArduinoCore-sam/out/sam.a(Print.o)
__aeabi_dcmpun                                    c:/users/roxanne/desktop/programming/adkit/tools/arm-none-eabi-gcc/9.3.1-2020q2-windows/bin/../lib/gcc/arm-none-eabi/9.3.1/thumb/v7-m/nofp\libgcc.a(_arm_unorddf2.o)
                                                  c:/users/roxanne/desktop/programming/adkit/tools/arm-none-eabi-gcc/9.3.1-2020q2-windows/bin/../lib/gcc/arm-none-eabi/9.3.1/../../../../arm-none-eabi/lib/thumb/v7-m/nofp\libc.a(lib_a-vfprintf.o)
                                                  ../../lib/ArduinoCore-sam/out/sam.a(Print.o)
__aeabi_ddiv                                      c:/users/roxanne/desktop/programming/adkit/tools/arm-none-eabi-gcc/9.3.1-2020q2-windows/bin/../lib/gcc/arm-none-eabi/9.3.1/thumb/v7-m/nofp\libgcc.a(_arm_muldivdf3.o)
                                                  c:/users/roxanne/desktop/programming/adkit/tools/arm-none-eabi-gcc/9.3.1-2020q2-windows/bin/../lib/gcc/arm-none-eabi/9.3.1/../../../../arm-none-eabi/lib/thumb/v7-m/nofp\libc.a(lib_a-mprec.o)
                                                  c:/users/roxanne/desktop/programming/adkit/tools/arm-none-eabi-gcc/9.3.1-2020q2-windows/bin/../lib/gcc/arm-none-eabi/9.3.1/../../../../arm-none-eabi/lib/thumb/v7-m/nofp\libc.a(lib_a-dtoa.o)
                                                  ../../lib/ArduinoCore-sam/out/sam.a(Print.o)
__aeabi_dmul                                      c:/users/roxanne/desktop/programming/adkit/tools/arm-none-eabi-gcc/9.3.1-2020q2-windows/bin/../lib/gcc/arm-none-eabi/9.3.1/thumb/v7-m/nofp\libgcc.a(_arm_muldivdf3.o)
                                                  c:/users/roxanne/desktop/programming/adkit/tools/arm-none-eabi-gcc/9.3.1-2020q2-windows/bin/../lib/gcc/arm-none-eabi/9.3.1/thumb/v7-m/nofp\libgcc.a(_arm_muldf3.o)
                                                  c:/users/roxanne/desktop/programming/adkit/tools/arm-none-eabi-gcc/9.3.1-2020q2-windows/bin/../lib/gcc/arm-none-eabi/9.3.1/../../../../arm-none-eabi/lib/thumb/v7-m/nofp\libc.a(lib_a-s_frexp.o)
                                                  c:/users/roxanne/desktop/programming/adkit/tools/arm-none-eabi-gcc/9.3.1-2020q2-windows/bin/../lib/gcc/arm-none-eabi/9.3.1/../../../../arm-none-eabi/lib/thumb/v7-m/nofp\libc.a(lib_a-mprec.o)
                                                  c:/users/roxanne/desktop/programming/adkit/tools/arm-none-eabi-gcc/9.3.1-2020q2-windows/bin/../lib/gcc/arm-none-eabi/9.3.1/../../../../arm-none-eabi/lib/thumb/v7-m/nofp\libc.a(lib_a-dtoa.o)
                                                  c:/users/roxanne/desktop/programming/adkit/tools/arm-none-eabi-gcc/9.3.1-2020q2-windows/bin/../lib/gcc/arm-none-eabi/9.3.1/../../../../arm-none-eabi/lib/thumb/v7-m/nofp\libc.a(lib_a-vfprintf.o)
                                                  ../../lib/ArduinoCore-sam/out/sam.a(Print.o)
__aeabi_drsub                                     c:/users/roxanne/desktop/programming/adkit/tools/arm-none-eabi-gcc/9.3.1-2020q2-windows/bin/../lib/gcc/arm-none-eabi/9.3.1/thumb/v7-m/nofp\libgcc.a(_arm_addsubdf3.o)
__aeabi_dsub                                      c:/users/roxanne/desktop/programming/adkit/tools/arm-none-eabi-gcc/9.3.1-2020q2-windows/bin/../lib/gcc/arm-none-eabi/9.3.1/thumb/v7-m/nofp\libgcc.a(_arm_addsubdf3.o)
                                                  c:/users/roxanne/desktop/programming/adkit/tools/arm-none-eabi-gcc/9.3.1-2020q2-windows/bin/../lib/gcc/arm-none-eabi/9.3.1/../../../../arm-none-eabi/lib/thumb/v7-m/nofp\libc.a(lib_a-dtoa.o)
                                                  c:/users/roxanne/desktop/programming/adkit/tools/arm-none-eabi-gcc/9.3.1-2020q2-windows/bin/../lib/gcc/arm-none-eabi/9.3.1/../../../../arm-none-eabi/lib/thumb/v7-m/nofp\libc.a(lib_a-vfprintf.o)
                                                  ../../lib/ArduinoCore-sam/out/sam.a(Print.o)
__aeabi_f2d                                       c:/users/roxanne/desktop/programming/adkit/tools/arm-none-eabi-gcc/9.3.1-2020q2-windows/bin/../lib/gcc/arm-none-eabi/9.3.1/thumb/v7-m/nofp\libgcc.a(_arm_addsubdf3.o)
__aeabi_i2d                                       c:/users/roxanne/desktop/programming/adkit/tools/arm-none-eabi-gcc/9.3.1-2020q2-windows/bin/../lib/gcc/arm-none-eabi/9.3.1/thumb/v7-m/nofp\libgcc.a(_arm_addsubdf3.o)
                                                  c:/users/roxanne/desktop/programming/adkit/tools/arm-none-eabi-gcc/9.3.1-2020q2-windows/bin/../lib/gcc/arm-none-eabi/9.3.1/../../../../arm-none-eabi/lib/thumb/v7-m/nofp\libc.a(lib_a-dtoa.o)
                                                  c:/users/roxanne/desktop/programming/adkit/tools/arm-none-eabi-gcc/9.3.1-2020q2-windows/bin/../lib/gcc/arm-none-eabi/9.3.1/../../../../arm-none-eabi/lib/thumb/v7-m/nofp\libc.a(lib_a-vfprintf.o)
__aeabi_idiv0                                     c:/users/roxanne/desktop/programming/adkit/tools/arm-none-eabi-gcc/9.3.1-2020q2-windows/bin/../lib/gcc/arm-none-eabi/9.3.1/thumb/v7-m/nofp\libgcc.a(_dvmd_tls.o)
__aeabi_l2d                                       c:/users/roxanne/desktop/programming/adkit/tools/arm-none-eabi-gcc/9.3.1-2020q2-windows/bin/../lib/gcc/arm-none-eabi/9.3.1/thumb/v7-m/nofp\libgcc.a(_arm_addsubdf3.o)
__aeabi_ldiv0                                     c:/users/roxanne/desktop/programming/adkit/tools/arm-none-eabi-gcc/9.3.1-2020q2-windows/bin/../lib/gcc/arm-none-eabi/9.3.1/thumb/v7-m/nofp\libgcc.a(_dvmd_tls.o)
                                                  c:/users/roxanne/desktop/programming/adkit/tools/arm-none-eabi-gcc/9.3.1-2020q2-windows/bin/../lib/gcc/arm-none-eabi/9.3.1/thumb/v7-m/nofp\libgcc.a(_aeabi_uldivmod.o)
__aeabi_ui2d                                      c:/users/roxanne/desktop/programming/adkit/tools/arm-none-eabi-gcc/9.3.1-2020q2-windows/bin/../lib/gcc/arm-none-eabi/9.3.1/thumb/v7-m/nofp\libgcc.a(_arm_addsubdf3.o)
                                                  c:/users/roxanne/desktop/programming/adkit/tools/arm-none-eabi-gcc/9.3.1-2020q2-windows/bin/../lib/gcc/arm-none-eabi/9.3.1/../../../../arm-none-eabi/lib/thumb/v7-m/nofp\libc.a(lib_a-dtoa.o)
                                                  ../../lib/ArduinoCore-sam/out/sam.a(Print.o)
__aeabi_ul2d                                      c:/users/roxanne/desktop/programming/adkit/tools/arm-none-eabi-gcc/9.3.1-2020q2-windows/bin/../lib/gcc/arm-none-eabi/9.3.1/thumb/v7-m/nofp\libgcc.a(_arm_addsubdf3.o)
__aeabi_uldivmod                                  c:/users/roxanne/desktop/programming/adkit/tools/arm-none-eabi-gcc/9.3.1-2020q2-windows/bin/../lib/gcc/arm-none-eabi/9.3.1/thumb/v7-m/nofp\libgcc.a(_aeabi_uldivmod.o)
                                                  c:/users/roxanne/desktop/programming/adkit/tools/arm-none-eabi-gcc/9.3.1-2020q2-windows/bin/../lib/gcc/arm-none-eabi/9.3.1/../../../../arm-none-eabi/lib/thumb/v7-m/nofp\libc.a(lib_a-vfprintf.o)
                                                  c:/users/roxanne/desktop/programming/adkit/tools/arm-none-eabi-gcc/9.3.1-2020q2-windows/bin/../lib/gcc/arm-none-eabi/9.3.1/../../../../arm-none-eabi/lib/thumb/v7-m/nofp\libc.a(lib_a-vfiprintf.o)
__aeabi_unwind_cpp_pr0                            c:/users/roxanne/desktop/programming/adkit/tools/arm-none-eabi-gcc/9.3.1-2020q2-windows/bin/../lib/gcc/arm-none-eabi/9.3.1/thumb/v7-m/nofp\libgcc.a(unwind-arm.o)
                                                  c:/users/roxanne/desktop/programming/adkit/tools/arm-none-eabi-gcc/9.3.1-2020q2-windows/bin/../lib/gcc/arm-none-eabi/9.3.1/thumb/v7-m/nofp\libgcc.a(pr-support.o)
                                                  build/asciz.a(print_asciz.o)
                                                  build/asciz.a(main.o)
__aeabi_unwind_cpp_pr1                            c:/users/roxanne/desktop/programming/adkit/tools/arm-none-eabi-gcc/9.3.1-2020q2-windows/bin/../lib/gcc/arm-none-eabi/9.3.1/thumb/v7-m/nofp\libgcc.a(unwind-arm.o)
                                                  c:/users/roxanne/desktop/programming/adkit/tools/arm-none-eabi-gcc/9.3.1-2020q2-windows/bin/../lib/gcc/arm-none-eabi/9.3.1/thumb/v7-m/nofp\libgcc.a(pr-support.o)
__aeabi_unwind_cpp_pr2                            c:/users/roxanne/desktop/programming/adkit/tools/arm-none-eabi-gcc/9.3.1-2020q2-windows/bin/../lib/gcc/arm-none-eabi/9.3.1/thumb/v7-m/nofp\libgcc.a(unwind-arm.o)
__any_on                                          c:/users/roxanne/desktop/programming/adkit/tools/arm-none-eabi-gcc/9.3.1-2020q2-windows/bin/../lib/gcc/arm-none-eabi/9.3.1/../../../../arm-none-eabi/lib/thumb/v7-m/nofp\libc.a(lib_a-mprec.o)
__ascii_mbtowc                                    c:/users/roxanne/desktop/programming/adkit/tools/arm-none-eabi-gcc/9.3.1-2020q2-windows/bin/../lib/gcc/arm-none-eabi/9.3.1/../../../../arm-none-eabi/lib/thumb/v7-m/nofp\libc.a(lib_a-mbtowc_r.o)
                                                  c:/users/roxanne/desktop/programming/adkit/tools/arm-none-eabi-gcc/9.3.1-2020q2-windows/bin/../lib/gcc/arm-none-eabi/9.3.1/../../../../arm-none-eabi/lib/thumb/v7-m/nofp\libc.a(lib_a-locale.o)
__ascii_wctomb                                    c:/users/roxanne/desktop/programming/adkit/tools/arm-none-eabi-gcc/9.3.1-2020q2-windows/bin/../lib/gcc/arm-none-eabi/9.3.1/../../../../arm-none-eabi/lib/thumb/v7-m/nofp\libc.a(lib_a-wctomb_r.o)
                                                  c:/users/roxanne/desktop/programming/adkit/tools/arm-none-eabi-gcc/9.3.1-2020q2-windows/bin/../lib/gcc/arm-none-eabi/9.3.1/../../../../arm-none-eabi/lib/thumb/v7-m/nofp\libc.a(lib_a-locale.o)
__assert                                          c:/users/roxanne/desktop/programming/adkit/tools/arm-none-eabi-gcc/9.3.1-2020q2-windows/bin/../lib/gcc/arm-none-eabi/9.3.1/../../../../arm-none-eabi/lib/thumb/v7-m/nofp\libc.a(lib_a-assert.o)
__assert_func                                     c:/users/roxanne/desktop/programming/adkit/tools/arm-none-eabi-gcc/9.3.1-2020q2-windows/bin/../lib/gcc/arm-none-eabi/9.3.1/../../../../arm-none-eabi/lib/thumb/v7-m/nofp\libc.a(lib_a-assert.o)
                                                  c:/users/roxanne/desktop/programming/adkit/tools/arm-none-eabi-gcc/9.3.1-2020q2-windows/bin/../lib/gcc/arm-none-eabi/9.3.1/../../../../arm-none-eabi/lib/thumb/v7-m/nofp\libc.a(lib_a-mprec.o)
                                                  c:/users/roxanne/desktop/programming/adkit/tools/arm-none-eabi-gcc/9.3.1-2020q2-windows/bin/../lib/gcc/arm-none-eabi/9.3.1/../../../../arm-none-eabi/lib/thumb/v7-m/nofp\libc.a(lib_a-dtoa.o)
                                                  ../../lib/ArduinoCore-sam/variants/arduino_due_x/libsam_sam3x8e_gcc_rel.a(tc.o)
                                                  ../../lib/ArduinoCore-sam/variants/arduino_due_x/libsam_sam3x8e_gcc_rel.a(pwmc.o)
__atexit_recursive_mutex                          c:/users/roxanne/desktop/programming/adkit/tools/arm-none-eabi-gcc/9.3.1-2020q2-windows/bin/../lib/gcc/arm-none-eabi/9.3.1/../../../../arm-none-eabi/lib/thumb/v7-m/nofp\libc.a(lib_a-__call_atexit.o)
                                                  c:/users/roxanne/desktop/programming/adkit/tools/arm-none-eabi-gcc/9.3.1-2020q2-windows/bin/../lib/gcc/arm-none-eabi/9.3.1/../../../../arm-none-eabi/lib/thumb/v7-m/nofp\libc.a(lib_a-__atexit.o)
__b2d                                             c:/users/roxanne/desktop/programming/adkit/tools/arm-none-eabi-gcc/9.3.1-2020q2-windows/bin/../lib/gcc/arm-none-eabi/9.3.1/../../../../arm-none-eabi/lib/thumb/v7-m/nofp\libc.a(lib_a-mprec.o)
__bss_end__                                       c:/users/roxanne/desktop/programming/adkit/tools/arm-none-eabi-gcc/9.3.1-2020q2-windows/bin/../lib/gcc/arm-none-eabi/9.3.1/../../../../arm-none-eabi/lib/thumb/v7-m/nofp/crt0.o
__bss_start__                                     c:/users/roxanne/desktop/programming/adkit/tools/arm-none-eabi-gcc/9.3.1-2020q2-windows/bin/../lib/gcc/arm-none-eabi/9.3.1/../../../../arm-none-eabi/lib/thumb/v7-m/nofp/crt0.o
__call_exitprocs                                  c:/users/roxanne/desktop/programming/adkit/tools/arm-none-eabi-gcc/9.3.1-2020q2-windows/bin/../lib/gcc/arm-none-eabi/9.3.1/../../../../arm-none-eabi/lib/thumb/v7-m/nofp\libc.a(lib_a-__call_atexit.o)
                                                  c:/users/roxanne/desktop/programming/adkit/tools/arm-none-eabi-gcc/9.3.1-2020q2-windows/bin/../lib/gcc/arm-none-eabi/9.3.1/../../../../arm-none-eabi/lib/thumb/v7-m/nofp\libc.a(lib_a-exit.o)
__cmpdf2                                          c:/users/roxanne/desktop/programming/adkit/tools/arm-none-eabi-gcc/9.3.1-2020q2-windows/bin/../lib/gcc/arm-none-eabi/9.3.1/thumb/v7-m/nofp\libgcc.a(_arm_cmpdf2.o)
__copybits                                        c:/users/roxanne/desktop/programming/adkit/tools/arm-none-eabi-gcc/9.3.1-2020q2-windows/bin/../lib/gcc/arm-none-eabi/9.3.1/../../../../arm-none-eabi/lib/thumb/v7-m/nofp\libc.a(lib_a-mprec.o)
__cxa_begin_cleanup                               c:/users/roxanne/desktop/programming/adkit/tools/arm-none-eabi-gcc/9.3.1-2020q2-windows/bin/../lib/gcc/arm-none-eabi/9.3.1/thumb/v7-m/nofp\libgcc.a(unwind-arm.o)
__cxa_call_unexpected                             c:/users/roxanne/desktop/programming/adkit/tools/arm-none-eabi-gcc/9.3.1-2020q2-windows/bin/../lib/gcc/arm-none-eabi/9.3.1/thumb/v7-m/nofp\libgcc.a(unwind-arm.o)
__cxa_deleted_virtual                             ../../lib/ArduinoCore-sam/out/sam.a(abi.o)
__cxa_pure_virtual                                ../../lib/ArduinoCore-sam/out/sam.a(abi.o)
                                                  ../../lib/ArduinoCore-sam/out/sam.a(Print.o)
__cxa_type_match                                  c:/users/roxanne/desktop/programming/adkit/tools/arm-none-eabi-gcc/9.3.1-2020q2-windows/bin/../lib/gcc/arm-none-eabi/9.3.1/thumb/v7-m/nofp\libgcc.a(unwind-arm.o)
__d2b                                             c:/users/roxanne/desktop/programming/adkit/tools/arm-none-eabi-gcc/9.3.1-2020q2-windows/bin/../lib/gcc/arm-none-eabi/9.3.1/../../../../arm-none-eabi/lib/thumb/v7-m/nofp\libc.a(lib_a-mprec.o)
                                                  c:/users/roxanne/desktop/programming/adkit/tools/arm-none-eabi-gcc/9.3.1-2020q2-windows/bin/../lib/gcc/arm-none-eabi/9.3.1/../../../../arm-none-eabi/lib/thumb/v7-m/nofp\libc.a(lib_a-dtoa.o)
__deregister_frame_info                           c:/users/roxanne/desktop/programming/adkit/tools/arm-none-eabi-gcc/9.3.1-2020q2-windows/bin/../lib/gcc/arm-none-eabi/9.3.1/thumb/v7-m/nofp/crtbegin.o
__divdf3                                          c:/users/roxanne/desktop/programming/adkit/tools/arm-none-eabi-gcc/9.3.1-2020q2-windows/bin/../lib/gcc/arm-none-eabi/9.3.1/thumb/v7-m/nofp\libgcc.a(_arm_muldivdf3.o)
__dso_handle                                      c:/users/roxanne/desktop/programming/adkit/tools/arm-none-eabi-gcc/9.3.1-2020q2-windows/bin/../lib/gcc/arm-none-eabi/9.3.1/thumb/v7-m/nofp/crtbegin.o
__eqdf2                                           c:/users/roxanne/desktop/programming/adkit/tools/arm-none-eabi-gcc/9.3.1-2020q2-windows/bin/../lib/gcc/arm-none-eabi/9.3.1/thumb/v7-m/nofp\libgcc.a(_arm_cmpdf2.o)
__exidx_end                                       c:/users/roxanne/desktop/programming/adkit/tools/arm-none-eabi-gcc/9.3.1-2020q2-windows/bin/../lib/gcc/arm-none-eabi/9.3.1/thumb/v7-m/nofp\libgcc.a(unwind-arm.o)
__exidx_start                                     c:/users/roxanne/desktop/programming/adkit/tools/arm-none-eabi-gcc/9.3.1-2020q2-windows/bin/../lib/gcc/arm-none-eabi/9.3.1/thumb/v7-m/nofp\libgcc.a(unwind-arm.o)
__extendsfdf2                                     c:/users/roxanne/desktop/programming/adkit/tools/arm-none-eabi-gcc/9.3.1-2020q2-windows/bin/../lib/gcc/arm-none-eabi/9.3.1/thumb/v7-m/nofp\libgcc.a(_arm_addsubdf3.o)
__fini_array_end                                  c:/users/roxanne/desktop/programming/adkit/tools/arm-none-eabi-gcc/9.3.1-2020q2-windows/bin/../lib/gcc/arm-none-eabi/9.3.1/../../../../arm-none-eabi/lib/thumb/v7-m/nofp\libc.a(lib_a-fini.o)
__fini_array_start                                c:/users/roxanne/desktop/programming/adkit/tools/arm-none-eabi-gcc/9.3.1-2020q2-windows/bin/../lib/gcc/arm-none-eabi/9.3.1/../../../../arm-none-eabi/lib/thumb/v7-m/nofp\libc.a(lib_a-fini.o)
__fixdfsi                                         c:/users/roxanne/desktop/programming/adkit/tools/arm-none-eabi-gcc/9.3.1-2020q2-windows/bin/../lib/gcc/arm-none-eabi/9.3.1/thumb/v7-m/nofp\libgcc.a(_arm_fixdfsi.o)
__fixunsdfsi                                      c:/users/roxanne/desktop/programming/adkit/tools/arm-none-eabi-gcc/9.3.1-2020q2-windows/bin/../lib/gcc/arm-none-eabi/9.3.1/thumb/v7-m/nofp\libgcc.a(_arm_fixunsdfsi.o)
__floatdidf                                       c:/users/roxanne/desktop/programming/adkit/tools/arm-none-eabi-gcc/9.3.1-2020q2-windows/bin/../lib/gcc/arm-none-eabi/9.3.1/thumb/v7-m/nofp\libgcc.a(_arm_addsubdf3.o)
__floatsidf                                       c:/users/roxanne/desktop/programming/adkit/tools/arm-none-eabi-gcc/9.3.1-2020q2-windows/bin/../lib/gcc/arm-none-eabi/9.3.1/thumb/v7-m/nofp\libgcc.a(_arm_addsubdf3.o)
__floatundidf                                     c:/users/roxanne/desktop/programming/adkit/tools/arm-none-eabi-gcc/9.3.1-2020q2-windows/bin/../lib/gcc/arm-none-eabi/9.3.1/thumb/v7-m/nofp\libgcc.a(_arm_addsubdf3.o)
__floatunsidf                                     c:/users/roxanne/desktop/programming/adkit/tools/arm-none-eabi-gcc/9.3.1-2020q2-windows/bin/../lib/gcc/arm-none-eabi/9.3.1/thumb/v7-m/nofp\libgcc.a(_arm_addsubdf3.o)
__fp_lock_all                                     c:/users/roxanne/desktop/programming/adkit/tools/arm-none-eabi-gcc/9.3.1-2020q2-windows/bin/../lib/gcc/arm-none-eabi/9.3.1/../../../../arm-none-eabi/lib/thumb/v7-m/nofp\libc.a(lib_a-findfp.o)
__fp_unlock_all                                   c:/users/roxanne/desktop/programming/adkit/tools/arm-none-eabi-gcc/9.3.1-2020q2-windows/bin/../lib/gcc/arm-none-eabi/9.3.1/../../../../arm-none-eabi/lib/thumb/v7-m/nofp\libc.a(lib_a-findfp.o)
__fputwc                                          c:/users/roxanne/desktop/programming/adkit/tools/arm-none-eabi-gcc/9.3.1-2020q2-windows/bin/../lib/gcc/arm-none-eabi/9.3.1/../../../../arm-none-eabi/lib/thumb/v7-m/nofp\libc.a(lib_a-fputwc.o)
__gedf2                                           c:/users/roxanne/desktop/programming/adkit/tools/arm-none-eabi-gcc/9.3.1-2020q2-windows/bin/../lib/gcc/arm-none-eabi/9.3.1/thumb/v7-m/nofp\libgcc.a(_arm_cmpdf2.o)
__global_locale                                   c:/users/roxanne/desktop/programming/adkit/tools/arm-none-eabi-gcc/9.3.1-2020q2-windows/bin/../lib/gcc/arm-none-eabi/9.3.1/../../../../arm-none-eabi/lib/thumb/v7-m/nofp\libc.a(lib_a-locale.o)
                                                  c:/users/roxanne/desktop/programming/adkit/tools/arm-none-eabi-gcc/9.3.1-2020q2-windows/bin/../lib/gcc/arm-none-eabi/9.3.1/../../../../arm-none-eabi/lib/thumb/v7-m/nofp\libc.a(lib_a-wctomb_r.o)
                                                  c:/users/roxanne/desktop/programming/adkit/tools/arm-none-eabi-gcc/9.3.1-2020q2-windows/bin/../lib/gcc/arm-none-eabi/9.3.1/../../../../arm-none-eabi/lib/thumb/v7-m/nofp\libc.a(lib_a-wcrtomb.o)
                                                  c:/users/roxanne/desktop/programming/adkit/tools/arm-none-eabi-gcc/9.3.1-2020q2-windows/bin/../lib/gcc/arm-none-eabi/9.3.1/../../../../arm-none-eabi/lib/thumb/v7-m/nofp\libc.a(lib_a-mbtowc_r.o)
                                                  c:/users/roxanne/desktop/programming/adkit/tools/arm-none-eabi-gcc/9.3.1-2020q2-windows/bin/../lib/gcc/arm-none-eabi/9.3.1/../../../../arm-none-eabi/lib/thumb/v7-m/nofp\libc.a(lib_a-localeconv.o)
__gnu_Unwind_Backtrace                            c:/users/roxanne/desktop/programming/adkit/tools/arm-none-eabi-gcc/9.3.1-2020q2-windows/bin/../lib/gcc/arm-none-eabi/9.3.1/thumb/v7-m/nofp\libgcc.a(unwind-arm.o)
                                                  c:/users/roxanne/desktop/programming/adkit/tools/arm-none-eabi-gcc/9.3.1-2020q2-windows/bin/../lib/gcc/arm-none-eabi/9.3.1/thumb/v7-m/nofp\libgcc.a(libunwind.o)
__gnu_Unwind_Find_exidx                           c:/users/roxanne/desktop/programming/adkit/tools/arm-none-eabi-gcc/9.3.1-2020q2-windows/bin/../lib/gcc/arm-none-eabi/9.3.1/thumb/v7-m/nofp\libgcc.a(unwind-arm.o)
__gnu_Unwind_ForcedUnwind                         c:/users/roxanne/desktop/programming/adkit/tools/arm-none-eabi-gcc/9.3.1-2020q2-windows/bin/../lib/gcc/arm-none-eabi/9.3.1/thumb/v7-m/nofp\libgcc.a(unwind-arm.o)
                                                  c:/users/roxanne/desktop/programming/adkit/tools/arm-none-eabi-gcc/9.3.1-2020q2-windows/bin/../lib/gcc/arm-none-eabi/9.3.1/thumb/v7-m/nofp\libgcc.a(libunwind.o)
__gnu_Unwind_RaiseException                       c:/users/roxanne/desktop/programming/adkit/tools/arm-none-eabi-gcc/9.3.1-2020q2-windows/bin/../lib/gcc/arm-none-eabi/9.3.1/thumb/v7-m/nofp\libgcc.a(unwind-arm.o)
                                                  c:/users/roxanne/desktop/programming/adkit/tools/arm-none-eabi-gcc/9.3.1-2020q2-windows/bin/../lib/gcc/arm-none-eabi/9.3.1/thumb/v7-m/nofp\libgcc.a(libunwind.o)
__gnu_Unwind_Restore_VFP                          c:/users/roxanne/desktop/programming/adkit/tools/arm-none-eabi-gcc/9.3.1-2020q2-windows/bin/../lib/gcc/arm-none-eabi/9.3.1/thumb/v7-m/nofp\libgcc.a(libunwind.o)
                                                  c:/users/roxanne/desktop/programming/adkit/tools/arm-none-eabi-gcc/9.3.1-2020q2-windows/bin/../lib/gcc/arm-none-eabi/9.3.1/thumb/v7-m/nofp\libgcc.a(unwind-arm.o)
__gnu_Unwind_Restore_VFP_D                        c:/users/roxanne/desktop/programming/adkit/tools/arm-none-eabi-gcc/9.3.1-2020q2-windows/bin/../lib/gcc/arm-none-eabi/9.3.1/thumb/v7-m/nofp\libgcc.a(libunwind.o)
                                                  c:/users/roxanne/desktop/programming/adkit/tools/arm-none-eabi-gcc/9.3.1-2020q2-windows/bin/../lib/gcc/arm-none-eabi/9.3.1/thumb/v7-m/nofp\libgcc.a(unwind-arm.o)
__gnu_Unwind_Restore_VFP_D_16_to_31               c:/users/roxanne/desktop/programming/adkit/tools/arm-none-eabi-gcc/9.3.1-2020q2-windows/bin/../lib/gcc/arm-none-eabi/9.3.1/thumb/v7-m/nofp\libgcc.a(libunwind.o)
                                                  c:/users/roxanne/desktop/programming/adkit/tools/arm-none-eabi-gcc/9.3.1-2020q2-windows/bin/../lib/gcc/arm-none-eabi/9.3.1/thumb/v7-m/nofp\libgcc.a(unwind-arm.o)
__gnu_Unwind_Restore_WMMXC                        c:/users/roxanne/desktop/programming/adkit/tools/arm-none-eabi-gcc/9.3.1-2020q2-windows/bin/../lib/gcc/arm-none-eabi/9.3.1/thumb/v7-m/nofp\libgcc.a(libunwind.o)
                                                  c:/users/roxanne/desktop/programming/adkit/tools/arm-none-eabi-gcc/9.3.1-2020q2-windows/bin/../lib/gcc/arm-none-eabi/9.3.1/thumb/v7-m/nofp\libgcc.a(unwind-arm.o)
__gnu_Unwind_Restore_WMMXD                        c:/users/roxanne/desktop/programming/adkit/tools/arm-none-eabi-gcc/9.3.1-2020q2-windows/bin/../lib/gcc/arm-none-eabi/9.3.1/thumb/v7-m/nofp\libgcc.a(libunwind.o)
                                                  c:/users/roxanne/desktop/programming/adkit/tools/arm-none-eabi-gcc/9.3.1-2020q2-windows/bin/../lib/gcc/arm-none-eabi/9.3.1/thumb/v7-m/nofp\libgcc.a(unwind-arm.o)
__gnu_Unwind_Resume                               c:/users/roxanne/desktop/programming/adkit/tools/arm-none-eabi-gcc/9.3.1-2020q2-windows/bin/../lib/gcc/arm-none-eabi/9.3.1/thumb/v7-m/nofp\libgcc.a(unwind-arm.o)
                                                  c:/users/roxanne/desktop/programming/adkit/tools/arm-none-eabi-gcc/9.3.1-2020q2-windows/bin/../lib/gcc/arm-none-eabi/9.3.1/thumb/v7-m/nofp\libgcc.a(libunwind.o)
__gnu_Unwind_Resume_or_Rethrow                    c:/users/roxanne/desktop/programming/adkit/tools/arm-none-eabi-gcc/9.3.1-2020q2-windows/bin/../lib/gcc/arm-none-eabi/9.3.1/thumb/v7-m/nofp\libgcc.a(unwind-arm.o)
                                                  c:/users/roxanne/desktop/programming/adkit/tools/arm-none-eabi-gcc/9.3.1-2020q2-windows/bin/../lib/gcc/arm-none-eabi/9.3.1/thumb/v7-m/nofp\libgcc.a(libunwind.o)
__gnu_Unwind_Save_VFP                             c:/users/roxanne/desktop/programming/adkit/tools/arm-none-eabi-gcc/9.3.1-2020q2-windows/bin/../lib/gcc/arm-none-eabi/9.3.1/thumb/v7-m/nofp\libgcc.a(libunwind.o)
                                                  c:/users/roxanne/desktop/programming/adkit/tools/arm-none-eabi-gcc/9.3.1-2020q2-windows/bin/../lib/gcc/arm-none-eabi/9.3.1/thumb/v7-m/nofp\libgcc.a(unwind-arm.o)
__gnu_Unwind_Save_VFP_D                           c:/users/roxanne/desktop/programming/adkit/tools/arm-none-eabi-gcc/9.3.1-2020q2-windows/bin/../lib/gcc/arm-none-eabi/9.3.1/thumb/v7-m/nofp\libgcc.a(libunwind.o)
                                                  c:/users/roxanne/desktop/programming/adkit/tools/arm-none-eabi-gcc/9.3.1-2020q2-windows/bin/../lib/gcc/arm-none-eabi/9.3.1/thumb/v7-m/nofp\libgcc.a(unwind-arm.o)
__gnu_Unwind_Save_VFP_D_16_to_31                  c:/users/roxanne/desktop/programming/adkit/tools/arm-none-eabi-gcc/9.3.1-2020q2-windows/bin/../lib/gcc/arm-none-eabi/9.3.1/thumb/v7-m/nofp\libgcc.a(libunwind.o)
                                                  c:/users/roxanne/desktop/programming/adkit/tools/arm-none-eabi-gcc/9.3.1-2020q2-windows/bin/../lib/gcc/arm-none-eabi/9.3.1/thumb/v7-m/nofp\libgcc.a(unwind-arm.o)
__gnu_Unwind_Save_WMMXC                           c:/users/roxanne/desktop/programming/adkit/tools/arm-none-eabi-gcc/9.3.1-2020q2-windows/bin/../lib/gcc/arm-none-eabi/9.3.1/thumb/v7-m/nofp\libgcc.a(libunwind.o)
                                                  c:/users/roxanne/desktop/programming/adkit/tools/arm-none-eabi-gcc/9.3.1-2020q2-windows/bin/../lib/gcc/arm-none-eabi/9.3.1/thumb/v7-m/nofp\libgcc.a(unwind-arm.o)
__gnu_Unwind_Save_WMMXD                           c:/users/roxanne/desktop/programming/adkit/tools/arm-none-eabi-gcc/9.3.1-2020q2-windows/bin/../lib/gcc/arm-none-eabi/9.3.1/thumb/v7-m/nofp\libgcc.a(libunwind.o)
                                                  c:/users/roxanne/desktop/programming/adkit/tools/arm-none-eabi-gcc/9.3.1-2020q2-windows/bin/../lib/gcc/arm-none-eabi/9.3.1/thumb/v7-m/nofp\libgcc.a(unwind-arm.o)
__gnu_unwind_execute                              c:/users/roxanne/desktop/programming/adkit/tools/arm-none-eabi-gcc/9.3.1-2020q2-windows/bin/../lib/gcc/arm-none-eabi/9.3.1/thumb/v7-m/nofp\libgcc.a(pr-support.o)
                                                  c:/users/roxanne/desktop/programming/adkit/tools/arm-none-eabi-gcc/9.3.1-2020q2-windows/bin/../lib/gcc/arm-none-eabi/9.3.1/thumb/v7-m/nofp\libgcc.a(unwind-arm.o)
__gnu_unwind_frame                                c:/users/roxanne/desktop/programming/adkit/tools/arm-none-eabi-gcc/9.3.1-2020q2-windows/bin/../lib/gcc/arm-none-eabi/9.3.1/thumb/v7-m/nofp\libgcc.a(pr-support.o)
__gtdf2                                           c:/users/roxanne/desktop/programming/adkit/tools/arm-none-eabi-gcc/9.3.1-2020q2-windows/bin/../lib/gcc/arm-none-eabi/9.3.1/thumb/v7-m/nofp\libgcc.a(_arm_cmpdf2.o)
__hi0bits                                         c:/users/roxanne/desktop/programming/adkit/tools/arm-none-eabi-gcc/9.3.1-2020q2-windows/bin/../lib/gcc/arm-none-eabi/9.3.1/../../../../arm-none-eabi/lib/thumb/v7-m/nofp\libc.a(lib_a-mprec.o)
                                                  c:/users/roxanne/desktop/programming/adkit/tools/arm-none-eabi-gcc/9.3.1-2020q2-windows/bin/../lib/gcc/arm-none-eabi/9.3.1/../../../../arm-none-eabi/lib/thumb/v7-m/nofp\libc.a(lib_a-dtoa.o)
__i2b                                             c:/users/roxanne/desktop/programming/adkit/tools/arm-none-eabi-gcc/9.3.1-2020q2-windows/bin/../lib/gcc/arm-none-eabi/9.3.1/../../../../arm-none-eabi/lib/thumb/v7-m/nofp\libc.a(lib_a-mprec.o)
                                                  c:/users/roxanne/desktop/programming/adkit/tools/arm-none-eabi-gcc/9.3.1-2020q2-windows/bin/../lib/gcc/arm-none-eabi/9.3.1/../../../../arm-none-eabi/lib/thumb/v7-m/nofp\libc.a(lib_a-dtoa.o)
__init_array_end                                  c:/users/roxanne/desktop/programming/adkit/tools/arm-none-eabi-gcc/9.3.1-2020q2-windows/bin/../lib/gcc/arm-none-eabi/9.3.1/../../../../arm-none-eabi/lib/thumb/v7-m/nofp\libc.a(lib_a-init.o)
__init_array_start                                c:/users/roxanne/desktop/programming/adkit/tools/arm-none-eabi-gcc/9.3.1-2020q2-windows/bin/../lib/gcc/arm-none-eabi/9.3.1/../../../../arm-none-eabi/lib/thumb/v7-m/nofp\libc.a(lib_a-init.o)
__ledf2                                           c:/users/roxanne/desktop/programming/adkit/tools/arm-none-eabi-gcc/9.3.1-2020q2-windows/bin/../lib/gcc/arm-none-eabi/9.3.1/thumb/v7-m/nofp\libgcc.a(_arm_cmpdf2.o)
__libc_fini                                       c:/users/roxanne/desktop/programming/adkit/tools/arm-none-eabi-gcc/9.3.1-2020q2-windows/bin/../lib/gcc/arm-none-eabi/9.3.1/../../../../arm-none-eabi/lib/thumb/v7-m/nofp\libc.a(lib_a-__call_atexit.o)
__libc_fini_array                                 c:/users/roxanne/desktop/programming/adkit/tools/arm-none-eabi-gcc/9.3.1-2020q2-windows/bin/../lib/gcc/arm-none-eabi/9.3.1/../../../../arm-none-eabi/lib/thumb/v7-m/nofp\libc.a(lib_a-fini.o)
                                                  c:/users/roxanne/desktop/programming/adkit/tools/arm-none-eabi-gcc/9.3.1-2020q2-windows/bin/../lib/gcc/arm-none-eabi/9.3.1/../../../../arm-none-eabi/lib/thumb/v7-m/nofp\libc.a(lib_a-__call_atexit.o)
                                                  c:/users/roxanne/desktop/programming/adkit/tools/arm-none-eabi-gcc/9.3.1-2020q2-windows/bin/../lib/gcc/arm-none-eabi/9.3.1/../../../../arm-none-eabi/lib/thumb/v7-m/nofp/crt0.o
__libc_init_array                                 c:/users/roxanne/desktop/programming/adkit/tools/arm-none-eabi-gcc/9.3.1-2020q2-windows/bin/../lib/gcc/arm-none-eabi/9.3.1/../../../../arm-none-eabi/lib/thumb/v7-m/nofp\libc.a(lib_a-init.o)
                                                  ../../lib/ArduinoCore-sam/out/sam.a(variant.o)
                                                  c:/users/roxanne/desktop/programming/adkit/tools/arm-none-eabi-gcc/9.3.1-2020q2-windows/bin/../lib/gcc/arm-none-eabi/9.3.1/../../../../arm-none-eabi/lib/thumb/v7-m/nofp/crt0.o
__lo0bits                                         c:/users/roxanne/desktop/programming/adkit/tools/arm-none-eabi-gcc/9.3.1-2020q2-windows/bin/../lib/gcc/arm-none-eabi/9.3.1/../../../../arm-none-eabi/lib/thumb/v7-m/nofp\libc.a(lib_a-mprec.o)
__locale_mb_cur_max                               c:/users/roxanne/desktop/programming/adkit/tools/arm-none-eabi-gcc/9.3.1-2020q2-windows/bin/../lib/gcc/arm-none-eabi/9.3.1/../../../../arm-none-eabi/lib/thumb/v7-m/nofp\libc.a(lib_a-locale.o)
                                                  c:/users/roxanne/desktop/programming/adkit/tools/arm-none-eabi-gcc/9.3.1-2020q2-windows/bin/../lib/gcc/arm-none-eabi/9.3.1/../../../../arm-none-eabi/lib/thumb/v7-m/nofp\libc.a(lib_a-fputwc.o)
__localeconv_l                                    c:/users/roxanne/desktop/programming/adkit/tools/arm-none-eabi-gcc/9.3.1-2020q2-windows/bin/../lib/gcc/arm-none-eabi/9.3.1/../../../../arm-none-eabi/lib/thumb/v7-m/nofp\libc.a(lib_a-localeconv.o)
__lock___arc4random_mutex                         c:/users/roxanne/desktop/programming/adkit/tools/arm-none-eabi-gcc/9.3.1-2020q2-windows/bin/../lib/gcc/arm-none-eabi/9.3.1/../../../../arm-none-eabi/lib/thumb/v7-m/nofp\libc.a(lib_a-lock.o)
__lock___at_quick_exit_mutex                      c:/users/roxanne/desktop/programming/adkit/tools/arm-none-eabi-gcc/9.3.1-2020q2-windows/bin/../lib/gcc/arm-none-eabi/9.3.1/../../../../arm-none-eabi/lib/thumb/v7-m/nofp\libc.a(lib_a-lock.o)
__lock___atexit_recursive_mutex                   c:/users/roxanne/desktop/programming/adkit/tools/arm-none-eabi-gcc/9.3.1-2020q2-windows/bin/../lib/gcc/arm-none-eabi/9.3.1/../../../../arm-none-eabi/lib/thumb/v7-m/nofp\libc.a(lib_a-lock.o)
                                                  c:/users/roxanne/desktop/programming/adkit/tools/arm-none-eabi-gcc/9.3.1-2020q2-windows/bin/../lib/gcc/arm-none-eabi/9.3.1/../../../../arm-none-eabi/lib/thumb/v7-m/nofp\libc.a(lib_a-__call_atexit.o)
__lock___dd_hash_mutex                            c:/users/roxanne/desktop/programming/adkit/tools/arm-none-eabi-gcc/9.3.1-2020q2-windows/bin/../lib/gcc/arm-none-eabi/9.3.1/../../../../arm-none-eabi/lib/thumb/v7-m/nofp\libc.a(lib_a-lock.o)
__lock___env_recursive_mutex                      c:/users/roxanne/desktop/programming/adkit/tools/arm-none-eabi-gcc/9.3.1-2020q2-windows/bin/../lib/gcc/arm-none-eabi/9.3.1/../../../../arm-none-eabi/lib/thumb/v7-m/nofp\libc.a(lib_a-lock.o)
__lock___malloc_recursive_mutex                   c:/users/roxanne/desktop/programming/adkit/tools/arm-none-eabi-gcc/9.3.1-2020q2-windows/bin/../lib/gcc/arm-none-eabi/9.3.1/../../../../arm-none-eabi/lib/thumb/v7-m/nofp\libc.a(lib_a-lock.o)
                                                  c:/users/roxanne/desktop/programming/adkit/tools/arm-none-eabi-gcc/9.3.1-2020q2-windows/bin/../lib/gcc/arm-none-eabi/9.3.1/../../../../arm-none-eabi/lib/thumb/v7-m/nofp\libc.a(lib_a-mlock.o)
__lock___sfp_recursive_mutex                      c:/users/roxanne/desktop/programming/adkit/tools/arm-none-eabi-gcc/9.3.1-2020q2-windows/bin/../lib/gcc/arm-none-eabi/9.3.1/../../../../arm-none-eabi/lib/thumb/v7-m/nofp\libc.a(lib_a-lock.o)
                                                  c:/users/roxanne/desktop/programming/adkit/tools/arm-none-eabi-gcc/9.3.1-2020q2-windows/bin/../lib/gcc/arm-none-eabi/9.3.1/../../../../arm-none-eabi/lib/thumb/v7-m/nofp\libc.a(lib_a-findfp.o)
__lock___sinit_recursive_mutex                    c:/users/roxanne/desktop/programming/adkit/tools/arm-none-eabi-gcc/9.3.1-2020q2-windows/bin/../lib/gcc/arm-none-eabi/9.3.1/../../../../arm-none-eabi/lib/thumb/v7-m/nofp\libc.a(lib_a-lock.o)
                                                  c:/users/roxanne/desktop/programming/adkit/tools/arm-none-eabi-gcc/9.3.1-2020q2-windows/bin/../lib/gcc/arm-none-eabi/9.3.1/../../../../arm-none-eabi/lib/thumb/v7-m/nofp\libc.a(lib_a-findfp.o)
__lock___tz_mutex                                 c:/users/roxanne/desktop/programming/adkit/tools/arm-none-eabi-gcc/9.3.1-2020q2-windows/bin/../lib/gcc/arm-none-eabi/9.3.1/../../../../arm-none-eabi/lib/thumb/v7-m/nofp\libc.a(lib_a-lock.o)
__lshift                                          c:/users/roxanne/desktop/programming/adkit/tools/arm-none-eabi-gcc/9.3.1-2020q2-windows/bin/../lib/gcc/arm-none-eabi/9.3.1/../../../../arm-none-eabi/lib/thumb/v7-m/nofp\libc.a(lib_a-mprec.o)
                                                  c:/users/roxanne/desktop/programming/adkit/tools/arm-none-eabi-gcc/9.3.1-2020q2-windows/bin/../lib/gcc/arm-none-eabi/9.3.1/../../../../arm-none-eabi/lib/thumb/v7-m/nofp\libc.a(lib_a-dtoa.o)
__ltdf2                                           c:/users/roxanne/desktop/programming/adkit/tools/arm-none-eabi-gcc/9.3.1-2020q2-windows/bin/../lib/gcc/arm-none-eabi/9.3.1/thumb/v7-m/nofp\libgcc.a(_arm_cmpdf2.o)
__malloc_av_                                      c:/users/roxanne/desktop/programming/adkit/tools/arm-none-eabi-gcc/9.3.1-2020q2-windows/bin/../lib/gcc/arm-none-eabi/9.3.1/../../../../arm-none-eabi/lib/thumb/v7-m/nofp\libc.a(lib_a-mallocr.o)
                                                  c:/users/roxanne/desktop/programming/adkit/tools/arm-none-eabi-gcc/9.3.1-2020q2-windows/bin/../lib/gcc/arm-none-eabi/9.3.1/../../../../arm-none-eabi/lib/thumb/v7-m/nofp\libc.a(lib_a-reallocr.o)
                                                  c:/users/roxanne/desktop/programming/adkit/tools/arm-none-eabi-gcc/9.3.1-2020q2-windows/bin/../lib/gcc/arm-none-eabi/9.3.1/../../../../arm-none-eabi/lib/thumb/v7-m/nofp\libc.a(lib_a-freer.o)
__malloc_current_mallinfo                         c:/users/roxanne/desktop/programming/adkit/tools/arm-none-eabi-gcc/9.3.1-2020q2-windows/bin/../lib/gcc/arm-none-eabi/9.3.1/../../../../arm-none-eabi/lib/thumb/v7-m/nofp\libc.a(lib_a-mallocr.o)
                                                  c:/users/roxanne/desktop/programming/adkit/tools/arm-none-eabi-gcc/9.3.1-2020q2-windows/bin/../lib/gcc/arm-none-eabi/9.3.1/../../../../arm-none-eabi/lib/thumb/v7-m/nofp\libc.a(lib_a-freer.o)
__malloc_lock                                     c:/users/roxanne/desktop/programming/adkit/tools/arm-none-eabi-gcc/9.3.1-2020q2-windows/bin/../lib/gcc/arm-none-eabi/9.3.1/../../../../arm-none-eabi/lib/thumb/v7-m/nofp\libc.a(lib_a-mlock.o)
                                                  c:/users/roxanne/desktop/programming/adkit/tools/arm-none-eabi-gcc/9.3.1-2020q2-windows/bin/../lib/gcc/arm-none-eabi/9.3.1/../../../../arm-none-eabi/lib/thumb/v7-m/nofp\libc.a(lib_a-reallocr.o)
                                                  c:/users/roxanne/desktop/programming/adkit/tools/arm-none-eabi-gcc/9.3.1-2020q2-windows/bin/../lib/gcc/arm-none-eabi/9.3.1/../../../../arm-none-eabi/lib/thumb/v7-m/nofp\libc.a(lib_a-mallocr.o)
                                                  c:/users/roxanne/desktop/programming/adkit/tools/arm-none-eabi-gcc/9.3.1-2020q2-windows/bin/../lib/gcc/arm-none-eabi/9.3.1/../../../../arm-none-eabi/lib/thumb/v7-m/nofp\libc.a(lib_a-freer.o)
__malloc_max_sbrked_mem                           c:/users/roxanne/desktop/programming/adkit/tools/arm-none-eabi-gcc/9.3.1-2020q2-windows/bin/../lib/gcc/arm-none-eabi/9.3.1/../../../../arm-none-eabi/lib/thumb/v7-m/nofp\libc.a(lib_a-mallocr.o)
__malloc_max_total_mem                            c:/users/roxanne/desktop/programming/adkit/tools/arm-none-eabi-gcc/9.3.1-2020q2-windows/bin/../lib/gcc/arm-none-eabi/9.3.1/../../../../arm-none-eabi/lib/thumb/v7-m/nofp\libc.a(lib_a-mallocr.o)
__malloc_sbrk_base                                c:/users/roxanne/desktop/programming/adkit/tools/arm-none-eabi-gcc/9.3.1-2020q2-windows/bin/../lib/gcc/arm-none-eabi/9.3.1/../../../../arm-none-eabi/lib/thumb/v7-m/nofp\libc.a(lib_a-mallocr.o)
                                                  c:/users/roxanne/desktop/programming/adkit/tools/arm-none-eabi-gcc/9.3.1-2020q2-windows/bin/../lib/gcc/arm-none-eabi/9.3.1/../../../../arm-none-eabi/lib/thumb/v7-m/nofp\libc.a(lib_a-freer.o)
__malloc_top_pad                                  c:/users/roxanne/desktop/programming/adkit/tools/arm-none-eabi-gcc/9.3.1-2020q2-windows/bin/../lib/gcc/arm-none-eabi/9.3.1/../../../../arm-none-eabi/lib/thumb/v7-m/nofp\libc.a(lib_a-mallocr.o)
                                                  c:/users/roxanne/desktop/programming/adkit/tools/arm-none-eabi-gcc/9.3.1-2020q2-windows/bin/../lib/gcc/arm-none-eabi/9.3.1/../../../../arm-none-eabi/lib/thumb/v7-m/nofp\libc.a(lib_a-freer.o)
__malloc_trim_threshold                           c:/users/roxanne/desktop/programming/adkit/tools/arm-none-eabi-gcc/9.3.1-2020q2-windows/bin/../lib/gcc/arm-none-eabi/9.3.1/../../../../arm-none-eabi/lib/thumb/v7-m/nofp\libc.a(lib_a-mallocr.o)
                                                  c:/users/roxanne/desktop/programming/adkit/tools/arm-none-eabi-gcc/9.3.1-2020q2-windows/bin/../lib/gcc/arm-none-eabi/9.3.1/../../../../arm-none-eabi/lib/thumb/v7-m/nofp\libc.a(lib_a-freer.o)
__malloc_unlock                                   c:/users/roxanne/desktop/programming/adkit/tools/arm-none-eabi-gcc/9.3.1-2020q2-windows/bin/../lib/gcc/arm-none-eabi/9.3.1/../../../../arm-none-eabi/lib/thumb/v7-m/nofp\libc.a(lib_a-mlock.o)
                                                  c:/users/roxanne/desktop/programming/adkit/tools/arm-none-eabi-gcc/9.3.1-2020q2-windows/bin/../lib/gcc/arm-none-eabi/9.3.1/../../../../arm-none-eabi/lib/thumb/v7-m/nofp\libc.a(lib_a-reallocr.o)
                                                  c:/users/roxanne/desktop/programming/adkit/tools/arm-none-eabi-gcc/9.3.1-2020q2-windows/bin/../lib/gcc/arm-none-eabi/9.3.1/../../../../arm-none-eabi/lib/thumb/v7-m/nofp\libc.a(lib_a-mallocr.o)
                                                  c:/users/roxanne/desktop/programming/adkit/tools/arm-none-eabi-gcc/9.3.1-2020q2-windows/bin/../lib/gcc/arm-none-eabi/9.3.1/../../../../arm-none-eabi/lib/thumb/v7-m/nofp\libc.a(lib_a-freer.o)
__mcmp                                            c:/users/roxanne/desktop/programming/adkit/tools/arm-none-eabi-gcc/9.3.1-2020q2-windows/bin/../lib/gcc/arm-none-eabi/9.3.1/../../../../arm-none-eabi/lib/thumb/v7-m/nofp\libc.a(lib_a-mprec.o)
                                                  c:/users/roxanne/desktop/programming/adkit/tools/arm-none-eabi-gcc/9.3.1-2020q2-windows/bin/../lib/gcc/arm-none-eabi/9.3.1/../../../../arm-none-eabi/lib/thumb/v7-m/nofp\libc.a(lib_a-dtoa.o)
__mdiff                                           c:/users/roxanne/desktop/programming/adkit/tools/arm-none-eabi-gcc/9.3.1-2020q2-windows/bin/../lib/gcc/arm-none-eabi/9.3.1/../../../../arm-none-eabi/lib/thumb/v7-m/nofp\libc.a(lib_a-mprec.o)
                                                  c:/users/roxanne/desktop/programming/adkit/tools/arm-none-eabi-gcc/9.3.1-2020q2-windows/bin/../lib/gcc/arm-none-eabi/9.3.1/../../../../arm-none-eabi/lib/thumb/v7-m/nofp\libc.a(lib_a-dtoa.o)
__mprec_bigtens                                   c:/users/roxanne/desktop/programming/adkit/tools/arm-none-eabi-gcc/9.3.1-2020q2-windows/bin/../lib/gcc/arm-none-eabi/9.3.1/../../../../arm-none-eabi/lib/thumb/v7-m/nofp\libc.a(lib_a-mprec.o)
                                                  c:/users/roxanne/desktop/programming/adkit/tools/arm-none-eabi-gcc/9.3.1-2020q2-windows/bin/../lib/gcc/arm-none-eabi/9.3.1/../../../../arm-none-eabi/lib/thumb/v7-m/nofp\libc.a(lib_a-dtoa.o)
__mprec_tens                                      c:/users/roxanne/desktop/programming/adkit/tools/arm-none-eabi-gcc/9.3.1-2020q2-windows/bin/../lib/gcc/arm-none-eabi/9.3.1/../../../../arm-none-eabi/lib/thumb/v7-m/nofp\libc.a(lib_a-mprec.o)
                                                  c:/users/roxanne/desktop/programming/adkit/tools/arm-none-eabi-gcc/9.3.1-2020q2-windows/bin/../lib/gcc/arm-none-eabi/9.3.1/../../../../arm-none-eabi/lib/thumb/v7-m/nofp\libc.a(lib_a-dtoa.o)
__mprec_tinytens                                  c:/users/roxanne/desktop/programming/adkit/tools/arm-none-eabi-gcc/9.3.1-2020q2-windows/bin/../lib/gcc/arm-none-eabi/9.3.1/../../../../arm-none-eabi/lib/thumb/v7-m/nofp\libc.a(lib_a-mprec.o)
__muldf3                                          c:/users/roxanne/desktop/programming/adkit/tools/arm-none-eabi-gcc/9.3.1-2020q2-windows/bin/../lib/gcc/arm-none-eabi/9.3.1/thumb/v7-m/nofp\libgcc.a(_arm_muldivdf3.o)
                                                  c:/users/roxanne/desktop/programming/adkit/tools/arm-none-eabi-gcc/9.3.1-2020q2-windows/bin/../lib/gcc/arm-none-eabi/9.3.1/thumb/v7-m/nofp\libgcc.a(_arm_muldf3.o)
__multadd                                         c:/users/roxanne/desktop/programming/adkit/tools/arm-none-eabi-gcc/9.3.1-2020q2-windows/bin/../lib/gcc/arm-none-eabi/9.3.1/../../../../arm-none-eabi/lib/thumb/v7-m/nofp\libc.a(lib_a-mprec.o)
                                                  c:/users/roxanne/desktop/programming/adkit/tools/arm-none-eabi-gcc/9.3.1-2020q2-windows/bin/../lib/gcc/arm-none-eabi/9.3.1/../../../../arm-none-eabi/lib/thumb/v7-m/nofp\libc.a(lib_a-dtoa.o)
__multiply                                        c:/users/roxanne/desktop/programming/adkit/tools/arm-none-eabi-gcc/9.3.1-2020q2-windows/bin/../lib/gcc/arm-none-eabi/9.3.1/../../../../arm-none-eabi/lib/thumb/v7-m/nofp\libc.a(lib_a-mprec.o)
                                                  c:/users/roxanne/desktop/programming/adkit/tools/arm-none-eabi-gcc/9.3.1-2020q2-windows/bin/../lib/gcc/arm-none-eabi/9.3.1/../../../../arm-none-eabi/lib/thumb/v7-m/nofp\libc.a(lib_a-dtoa.o)
__nedf2                                           c:/users/roxanne/desktop/programming/adkit/tools/arm-none-eabi-gcc/9.3.1-2020q2-windows/bin/../lib/gcc/arm-none-eabi/9.3.1/thumb/v7-m/nofp\libgcc.a(_arm_cmpdf2.o)
__pow5mult                                        c:/users/roxanne/desktop/programming/adkit/tools/arm-none-eabi-gcc/9.3.1-2020q2-windows/bin/../lib/gcc/arm-none-eabi/9.3.1/../../../../arm-none-eabi/lib/thumb/v7-m/nofp\libc.a(lib_a-mprec.o)
                                                  c:/users/roxanne/desktop/programming/adkit/tools/arm-none-eabi-gcc/9.3.1-2020q2-windows/bin/../lib/gcc/arm-none-eabi/9.3.1/../../../../arm-none-eabi/lib/thumb/v7-m/nofp\libc.a(lib_a-dtoa.o)
__preinit_array_end                               c:/users/roxanne/desktop/programming/adkit/tools/arm-none-eabi-gcc/9.3.1-2020q2-windows/bin/../lib/gcc/arm-none-eabi/9.3.1/../../../../arm-none-eabi/lib/thumb/v7-m/nofp\libc.a(lib_a-init.o)
__preinit_array_start                             c:/users/roxanne/desktop/programming/adkit/tools/arm-none-eabi-gcc/9.3.1-2020q2-windows/bin/../lib/gcc/arm-none-eabi/9.3.1/../../../../arm-none-eabi/lib/thumb/v7-m/nofp\libc.a(lib_a-init.o)
__ratio                                           c:/users/roxanne/desktop/programming/adkit/tools/arm-none-eabi-gcc/9.3.1-2020q2-windows/bin/../lib/gcc/arm-none-eabi/9.3.1/../../../../arm-none-eabi/lib/thumb/v7-m/nofp\libc.a(lib_a-mprec.o)
__register_exitproc                               c:/users/roxanne/desktop/programming/adkit/tools/arm-none-eabi-gcc/9.3.1-2020q2-windows/bin/../lib/gcc/arm-none-eabi/9.3.1/../../../../arm-none-eabi/lib/thumb/v7-m/nofp\libc.a(lib_a-__atexit.o)
                                                  c:/users/roxanne/desktop/programming/adkit/tools/arm-none-eabi-gcc/9.3.1-2020q2-windows/bin/../lib/gcc/arm-none-eabi/9.3.1/../../../../arm-none-eabi/lib/thumb/v7-m/nofp\libc.a(lib_a-atexit.o)
__register_frame_info                             c:/users/roxanne/desktop/programming/adkit/tools/arm-none-eabi-gcc/9.3.1-2020q2-windows/bin/../lib/gcc/arm-none-eabi/9.3.1/thumb/v7-m/nofp/crtbegin.o
__restore_core_regs                               c:/users/roxanne/desktop/programming/adkit/tools/arm-none-eabi-gcc/9.3.1-2020q2-windows/bin/../lib/gcc/arm-none-eabi/9.3.1/thumb/v7-m/nofp\libgcc.a(libunwind.o)
__retarget_lock_acquire                           c:/users/roxanne/desktop/programming/adkit/tools/arm-none-eabi-gcc/9.3.1-2020q2-windows/bin/../lib/gcc/arm-none-eabi/9.3.1/../../../../arm-none-eabi/lib/thumb/v7-m/nofp\libc.a(lib_a-lock.o)
__retarget_lock_acquire_recursive                 c:/users/roxanne/desktop/programming/adkit/tools/arm-none-eabi-gcc/9.3.1-2020q2-windows/bin/../lib/gcc/arm-none-eabi/9.3.1/../../../../arm-none-eabi/lib/thumb/v7-m/nofp\libc.a(lib_a-lock.o)
                                                  c:/users/roxanne/desktop/programming/adkit/tools/arm-none-eabi-gcc/9.3.1-2020q2-windows/bin/../lib/gcc/arm-none-eabi/9.3.1/../../../../arm-none-eabi/lib/thumb/v7-m/nofp\libc.a(lib_a-fclose.o)
                                                  c:/users/roxanne/desktop/programming/adkit/tools/arm-none-eabi-gcc/9.3.1-2020q2-windows/bin/../lib/gcc/arm-none-eabi/9.3.1/../../../../arm-none-eabi/lib/thumb/v7-m/nofp\libc.a(lib_a-__atexit.o)
                                                  c:/users/roxanne/desktop/programming/adkit/tools/arm-none-eabi-gcc/9.3.1-2020q2-windows/bin/../lib/gcc/arm-none-eabi/9.3.1/../../../../arm-none-eabi/lib/thumb/v7-m/nofp\libc.a(lib_a-putc.o)
                                                  c:/users/roxanne/desktop/programming/adkit/tools/arm-none-eabi-gcc/9.3.1-2020q2-windows/bin/../lib/gcc/arm-none-eabi/9.3.1/../../../../arm-none-eabi/lib/thumb/v7-m/nofp\libc.a(lib_a-mlock.o)
                                                  c:/users/roxanne/desktop/programming/adkit/tools/arm-none-eabi-gcc/9.3.1-2020q2-windows/bin/../lib/gcc/arm-none-eabi/9.3.1/../../../../arm-none-eabi/lib/thumb/v7-m/nofp\libc.a(lib_a-fputwc.o)
                                                  c:/users/roxanne/desktop/programming/adkit/tools/arm-none-eabi-gcc/9.3.1-2020q2-windows/bin/../lib/gcc/arm-none-eabi/9.3.1/../../../../arm-none-eabi/lib/thumb/v7-m/nofp\libc.a(lib_a-findfp.o)
                                                  c:/users/roxanne/desktop/programming/adkit/tools/arm-none-eabi-gcc/9.3.1-2020q2-windows/bin/../lib/gcc/arm-none-eabi/9.3.1/../../../../arm-none-eabi/lib/thumb/v7-m/nofp\libc.a(lib_a-fflush.o)
                                                  c:/users/roxanne/desktop/programming/adkit/tools/arm-none-eabi-gcc/9.3.1-2020q2-windows/bin/../lib/gcc/arm-none-eabi/9.3.1/../../../../arm-none-eabi/lib/thumb/v7-m/nofp\libc.a(lib_a-__call_atexit.o)
                                                  c:/users/roxanne/desktop/programming/adkit/tools/arm-none-eabi-gcc/9.3.1-2020q2-windows/bin/../lib/gcc/arm-none-eabi/9.3.1/../../../../arm-none-eabi/lib/thumb/v7-m/nofp\libc.a(lib_a-vfprintf.o)
                                                  c:/users/roxanne/desktop/programming/adkit/tools/arm-none-eabi-gcc/9.3.1-2020q2-windows/bin/../lib/gcc/arm-none-eabi/9.3.1/../../../../arm-none-eabi/lib/thumb/v7-m/nofp\libc.a(lib_a-vfiprintf.o)
__retarget_lock_close                             c:/users/roxanne/desktop/programming/adkit/tools/arm-none-eabi-gcc/9.3.1-2020q2-windows/bin/../lib/gcc/arm-none-eabi/9.3.1/../../../../arm-none-eabi/lib/thumb/v7-m/nofp\libc.a(lib_a-lock.o)
__retarget_lock_close_recursive                   c:/users/roxanne/desktop/programming/adkit/tools/arm-none-eabi-gcc/9.3.1-2020q2-windows/bin/../lib/gcc/arm-none-eabi/9.3.1/../../../../arm-none-eabi/lib/thumb/v7-m/nofp\libc.a(lib_a-lock.o)
                                                  c:/users/roxanne/desktop/programming/adkit/tools/arm-none-eabi-gcc/9.3.1-2020q2-windows/bin/../lib/gcc/arm-none-eabi/9.3.1/../../../../arm-none-eabi/lib/thumb/v7-m/nofp\libc.a(lib_a-fclose.o)
                                                  c:/users/roxanne/desktop/programming/adkit/tools/arm-none-eabi-gcc/9.3.1-2020q2-windows/bin/../lib/gcc/arm-none-eabi/9.3.1/../../../../arm-none-eabi/lib/thumb/v7-m/nofp\libc.a(lib_a-vfprintf.o)
                                                  c:/users/roxanne/desktop/programming/adkit/tools/arm-none-eabi-gcc/9.3.1-2020q2-windows/bin/../lib/gcc/arm-none-eabi/9.3.1/../../../../arm-none-eabi/lib/thumb/v7-m/nofp\libc.a(lib_a-vfiprintf.o)
__retarget_lock_init                              c:/users/roxanne/desktop/programming/adkit/tools/arm-none-eabi-gcc/9.3.1-2020q2-windows/bin/../lib/gcc/arm-none-eabi/9.3.1/../../../../arm-none-eabi/lib/thumb/v7-m/nofp\libc.a(lib_a-lock.o)
__retarget_lock_init_recursive                    c:/users/roxanne/desktop/programming/adkit/tools/arm-none-eabi-gcc/9.3.1-2020q2-windows/bin/../lib/gcc/arm-none-eabi/9.3.1/../../../../arm-none-eabi/lib/thumb/v7-m/nofp\libc.a(lib_a-lock.o)
                                                  c:/users/roxanne/desktop/programming/adkit/tools/arm-none-eabi-gcc/9.3.1-2020q2-windows/bin/../lib/gcc/arm-none-eabi/9.3.1/../../../../arm-none-eabi/lib/thumb/v7-m/nofp\libc.a(lib_a-findfp.o)
                                                  c:/users/roxanne/desktop/programming/adkit/tools/arm-none-eabi-gcc/9.3.1-2020q2-windows/bin/../lib/gcc/arm-none-eabi/9.3.1/../../../../arm-none-eabi/lib/thumb/v7-m/nofp\libc.a(lib_a-vfprintf.o)
                                                  c:/users/roxanne/desktop/programming/adkit/tools/arm-none-eabi-gcc/9.3.1-2020q2-windows/bin/../lib/gcc/arm-none-eabi/9.3.1/../../../../arm-none-eabi/lib/thumb/v7-m/nofp\libc.a(lib_a-vfiprintf.o)
__retarget_lock_release                           c:/users/roxanne/desktop/programming/adkit/tools/arm-none-eabi-gcc/9.3.1-2020q2-windows/bin/../lib/gcc/arm-none-eabi/9.3.1/../../../../arm-none-eabi/lib/thumb/v7-m/nofp\libc.a(lib_a-lock.o)
__retarget_lock_release_recursive                 c:/users/roxanne/desktop/programming/adkit/tools/arm-none-eabi-gcc/9.3.1-2020q2-windows/bin/../lib/gcc/arm-none-eabi/9.3.1/../../../../arm-none-eabi/lib/thumb/v7-m/nofp\libc.a(lib_a-lock.o)
                                                  c:/users/roxanne/desktop/programming/adkit/tools/arm-none-eabi-gcc/9.3.1-2020q2-windows/bin/../lib/gcc/arm-none-eabi/9.3.1/../../../../arm-none-eabi/lib/thumb/v7-m/nofp\libc.a(lib_a-fclose.o)
                                                  c:/users/roxanne/desktop/programming/adkit/tools/arm-none-eabi-gcc/9.3.1-2020q2-windows/bin/../lib/gcc/arm-none-eabi/9.3.1/../../../../arm-none-eabi/lib/thumb/v7-m/nofp\libc.a(lib_a-__atexit.o)
                                                  c:/users/roxanne/desktop/programming/adkit/tools/arm-none-eabi-gcc/9.3.1-2020q2-windows/bin/../lib/gcc/arm-none-eabi/9.3.1/../../../../arm-none-eabi/lib/thumb/v7-m/nofp\libc.a(lib_a-putc.o)
                                                  c:/users/roxanne/desktop/programming/adkit/tools/arm-none-eabi-gcc/9.3.1-2020q2-windows/bin/../lib/gcc/arm-none-eabi/9.3.1/../../../../arm-none-eabi/lib/thumb/v7-m/nofp\libc.a(lib_a-mlock.o)
                                                  c:/users/roxanne/desktop/programming/adkit/tools/arm-none-eabi-gcc/9.3.1-2020q2-windows/bin/../lib/gcc/arm-none-eabi/9.3.1/../../../../arm-none-eabi/lib/thumb/v7-m/nofp\libc.a(lib_a-fputwc.o)
                                                  c:/users/roxanne/desktop/programming/adkit/tools/arm-none-eabi-gcc/9.3.1-2020q2-windows/bin/../lib/gcc/arm-none-eabi/9.3.1/../../../../arm-none-eabi/lib/thumb/v7-m/nofp\libc.a(lib_a-findfp.o)
                                                  c:/users/roxanne/desktop/programming/adkit/tools/arm-none-eabi-gcc/9.3.1-2020q2-windows/bin/../lib/gcc/arm-none-eabi/9.3.1/../../../../arm-none-eabi/lib/thumb/v7-m/nofp\libc.a(lib_a-fflush.o)
                                                  c:/users/roxanne/desktop/programming/adkit/tools/arm-none-eabi-gcc/9.3.1-2020q2-windows/bin/../lib/gcc/arm-none-eabi/9.3.1/../../../../arm-none-eabi/lib/thumb/v7-m/nofp\libc.a(lib_a-__call_atexit.o)
                                                  c:/users/roxanne/desktop/programming/adkit/tools/arm-none-eabi-gcc/9.3.1-2020q2-windows/bin/../lib/gcc/arm-none-eabi/9.3.1/../../../../arm-none-eabi/lib/thumb/v7-m/nofp\libc.a(lib_a-vfprintf.o)
                                                  c:/users/roxanne/desktop/programming/adkit/tools/arm-none-eabi-gcc/9.3.1-2020q2-windows/bin/../lib/gcc/arm-none-eabi/9.3.1/../../../../arm-none-eabi/lib/thumb/v7-m/nofp\libc.a(lib_a-vfiprintf.o)
__retarget_lock_try_acquire                       c:/users/roxanne/desktop/programming/adkit/tools/arm-none-eabi-gcc/9.3.1-2020q2-windows/bin/../lib/gcc/arm-none-eabi/9.3.1/../../../../arm-none-eabi/lib/thumb/v7-m/nofp\libc.a(lib_a-lock.o)
__retarget_lock_try_acquire_recursive             c:/users/roxanne/desktop/programming/adkit/tools/arm-none-eabi-gcc/9.3.1-2020q2-windows/bin/../lib/gcc/arm-none-eabi/9.3.1/../../../../arm-none-eabi/lib/thumb/v7-m/nofp\libc.a(lib_a-lock.o)
__s2b                                             c:/users/roxanne/desktop/programming/adkit/tools/arm-none-eabi-gcc/9.3.1-2020q2-windows/bin/../lib/gcc/arm-none-eabi/9.3.1/../../../../arm-none-eabi/lib/thumb/v7-m/nofp\libc.a(lib_a-mprec.o)
__sclose                                          c:/users/roxanne/desktop/programming/adkit/tools/arm-none-eabi-gcc/9.3.1-2020q2-windows/bin/../lib/gcc/arm-none-eabi/9.3.1/../../../../arm-none-eabi/lib/thumb/v7-m/nofp\libc.a(lib_a-stdio.o)
                                                  c:/users/roxanne/desktop/programming/adkit/tools/arm-none-eabi-gcc/9.3.1-2020q2-windows/bin/../lib/gcc/arm-none-eabi/9.3.1/../../../../arm-none-eabi/lib/thumb/v7-m/nofp\libc.a(lib_a-findfp.o)
__seofread                                        c:/users/roxanne/desktop/programming/adkit/tools/arm-none-eabi-gcc/9.3.1-2020q2-windows/bin/../lib/gcc/arm-none-eabi/9.3.1/../../../../arm-none-eabi/lib/thumb/v7-m/nofp\libc.a(lib_a-stdio.o)
__sflush_r                                        c:/users/roxanne/desktop/programming/adkit/tools/arm-none-eabi-gcc/9.3.1-2020q2-windows/bin/../lib/gcc/arm-none-eabi/9.3.1/../../../../arm-none-eabi/lib/thumb/v7-m/nofp\libc.a(lib_a-fflush.o)
                                                  c:/users/roxanne/desktop/programming/adkit/tools/arm-none-eabi-gcc/9.3.1-2020q2-windows/bin/../lib/gcc/arm-none-eabi/9.3.1/../../../../arm-none-eabi/lib/thumb/v7-m/nofp\libc.a(lib_a-fclose.o)
__sfmoreglue                                      c:/users/roxanne/desktop/programming/adkit/tools/arm-none-eabi-gcc/9.3.1-2020q2-windows/bin/../lib/gcc/arm-none-eabi/9.3.1/../../../../arm-none-eabi/lib/thumb/v7-m/nofp\libc.a(lib_a-findfp.o)
__sfp                                             c:/users/roxanne/desktop/programming/adkit/tools/arm-none-eabi-gcc/9.3.1-2020q2-windows/bin/../lib/gcc/arm-none-eabi/9.3.1/../../../../arm-none-eabi/lib/thumb/v7-m/nofp\libc.a(lib_a-findfp.o)
__sfp_lock_acquire                                c:/users/roxanne/desktop/programming/adkit/tools/arm-none-eabi-gcc/9.3.1-2020q2-windows/bin/../lib/gcc/arm-none-eabi/9.3.1/../../../../arm-none-eabi/lib/thumb/v7-m/nofp\libc.a(lib_a-findfp.o)
                                                  c:/users/roxanne/desktop/programming/adkit/tools/arm-none-eabi-gcc/9.3.1-2020q2-windows/bin/../lib/gcc/arm-none-eabi/9.3.1/../../../../arm-none-eabi/lib/thumb/v7-m/nofp\libc.a(lib_a-fclose.o)
__sfp_lock_release                                c:/users/roxanne/desktop/programming/adkit/tools/arm-none-eabi-gcc/9.3.1-2020q2-windows/bin/../lib/gcc/arm-none-eabi/9.3.1/../../../../arm-none-eabi/lib/thumb/v7-m/nofp\libc.a(lib_a-findfp.o)
                                                  c:/users/roxanne/desktop/programming/adkit/tools/arm-none-eabi-gcc/9.3.1-2020q2-windows/bin/../lib/gcc/arm-none-eabi/9.3.1/../../../../arm-none-eabi/lib/thumb/v7-m/nofp\libc.a(lib_a-fclose.o)
__sfvwrite_r                                      c:/users/roxanne/desktop/programming/adkit/tools/arm-none-eabi-gcc/9.3.1-2020q2-windows/bin/../lib/gcc/arm-none-eabi/9.3.1/../../../../arm-none-eabi/lib/thumb/v7-m/nofp\libc.a(lib_a-fvwrite.o)
                                                  c:/users/roxanne/desktop/programming/adkit/tools/arm-none-eabi-gcc/9.3.1-2020q2-windows/bin/../lib/gcc/arm-none-eabi/9.3.1/../../../../arm-none-eabi/lib/thumb/v7-m/nofp\libc.a(lib_a-vfiprintf.o)
__sigtramp                                        c:/users/roxanne/desktop/programming/adkit/tools/arm-none-eabi-gcc/9.3.1-2020q2-windows/bin/../lib/gcc/arm-none-eabi/9.3.1/../../../../arm-none-eabi/lib/thumb/v7-m/nofp\libc.a(lib_a-signal.o)
__sigtramp_r                                      c:/users/roxanne/desktop/programming/adkit/tools/arm-none-eabi-gcc/9.3.1-2020q2-windows/bin/../lib/gcc/arm-none-eabi/9.3.1/../../../../arm-none-eabi/lib/thumb/v7-m/nofp\libc.a(lib_a-signal.o)
__sinit                                           c:/users/roxanne/desktop/programming/adkit/tools/arm-none-eabi-gcc/9.3.1-2020q2-windows/bin/../lib/gcc/arm-none-eabi/9.3.1/../../../../arm-none-eabi/lib/thumb/v7-m/nofp\libc.a(lib_a-findfp.o)
                                                  c:/users/roxanne/desktop/programming/adkit/tools/arm-none-eabi-gcc/9.3.1-2020q2-windows/bin/../lib/gcc/arm-none-eabi/9.3.1/../../../../arm-none-eabi/lib/thumb/v7-m/nofp\libc.a(lib_a-fclose.o)
                                                  c:/users/roxanne/desktop/programming/adkit/tools/arm-none-eabi-gcc/9.3.1-2020q2-windows/bin/../lib/gcc/arm-none-eabi/9.3.1/../../../../arm-none-eabi/lib/thumb/v7-m/nofp\libc.a(lib_a-wbuf.o)
                                                  c:/users/roxanne/desktop/programming/adkit/tools/arm-none-eabi-gcc/9.3.1-2020q2-windows/bin/../lib/gcc/arm-none-eabi/9.3.1/../../../../arm-none-eabi/lib/thumb/v7-m/nofp\libc.a(lib_a-putc.o)
                                                  c:/users/roxanne/desktop/programming/adkit/tools/arm-none-eabi-gcc/9.3.1-2020q2-windows/bin/../lib/gcc/arm-none-eabi/9.3.1/../../../../arm-none-eabi/lib/thumb/v7-m/nofp\libc.a(lib_a-fputwc.o)
                                                  c:/users/roxanne/desktop/programming/adkit/tools/arm-none-eabi-gcc/9.3.1-2020q2-windows/bin/../lib/gcc/arm-none-eabi/9.3.1/../../../../arm-none-eabi/lib/thumb/v7-m/nofp\libc.a(lib_a-fflush.o)
                                                  c:/users/roxanne/desktop/programming/adkit/tools/arm-none-eabi-gcc/9.3.1-2020q2-windows/bin/../lib/gcc/arm-none-eabi/9.3.1/../../../../arm-none-eabi/lib/thumb/v7-m/nofp\libc.a(lib_a-wsetup.o)
                                                  c:/users/roxanne/desktop/programming/adkit/tools/arm-none-eabi-gcc/9.3.1-2020q2-windows/bin/../lib/gcc/arm-none-eabi/9.3.1/../../../../arm-none-eabi/lib/thumb/v7-m/nofp\libc.a(lib_a-vfprintf.o)
                                                  c:/users/roxanne/desktop/programming/adkit/tools/arm-none-eabi-gcc/9.3.1-2020q2-windows/bin/../lib/gcc/arm-none-eabi/9.3.1/../../../../arm-none-eabi/lib/thumb/v7-m/nofp\libc.a(lib_a-vfiprintf.o)
__sinit_lock_acquire                              c:/users/roxanne/desktop/programming/adkit/tools/arm-none-eabi-gcc/9.3.1-2020q2-windows/bin/../lib/gcc/arm-none-eabi/9.3.1/../../../../arm-none-eabi/lib/thumb/v7-m/nofp\libc.a(lib_a-findfp.o)
__sinit_lock_release                              c:/users/roxanne/desktop/programming/adkit/tools/arm-none-eabi-gcc/9.3.1-2020q2-windows/bin/../lib/gcc/arm-none-eabi/9.3.1/../../../../arm-none-eabi/lib/thumb/v7-m/nofp\libc.a(lib_a-findfp.o)
__smakebuf_r                                      c:/users/roxanne/desktop/programming/adkit/tools/arm-none-eabi-gcc/9.3.1-2020q2-windows/bin/../lib/gcc/arm-none-eabi/9.3.1/../../../../arm-none-eabi/lib/thumb/v7-m/nofp\libc.a(lib_a-makebuf.o)
                                                  c:/users/roxanne/desktop/programming/adkit/tools/arm-none-eabi-gcc/9.3.1-2020q2-windows/bin/../lib/gcc/arm-none-eabi/9.3.1/../../../../arm-none-eabi/lib/thumb/v7-m/nofp\libc.a(lib_a-wsetup.o)
__sprint_r                                        c:/users/roxanne/desktop/programming/adkit/tools/arm-none-eabi-gcc/9.3.1-2020q2-windows/bin/../lib/gcc/arm-none-eabi/9.3.1/../../../../arm-none-eabi/lib/thumb/v7-m/nofp\libc.a(lib_a-vfiprintf.o)
                                                  c:/users/roxanne/desktop/programming/adkit/tools/arm-none-eabi-gcc/9.3.1-2020q2-windows/bin/../lib/gcc/arm-none-eabi/9.3.1/../../../../arm-none-eabi/lib/thumb/v7-m/nofp\libc.a(lib_a-vfprintf.o)
__sread                                           c:/users/roxanne/desktop/programming/adkit/tools/arm-none-eabi-gcc/9.3.1-2020q2-windows/bin/../lib/gcc/arm-none-eabi/9.3.1/../../../../arm-none-eabi/lib/thumb/v7-m/nofp\libc.a(lib_a-stdio.o)
                                                  c:/users/roxanne/desktop/programming/adkit/tools/arm-none-eabi-gcc/9.3.1-2020q2-windows/bin/../lib/gcc/arm-none-eabi/9.3.1/../../../../arm-none-eabi/lib/thumb/v7-m/nofp\libc.a(lib_a-findfp.o)
__sseek                                           c:/users/roxanne/desktop/programming/adkit/tools/arm-none-eabi-gcc/9.3.1-2020q2-windows/bin/../lib/gcc/arm-none-eabi/9.3.1/../../../../arm-none-eabi/lib/thumb/v7-m/nofp\libc.a(lib_a-stdio.o)
                                                  c:/users/roxanne/desktop/programming/adkit/tools/arm-none-eabi-gcc/9.3.1-2020q2-windows/bin/../lib/gcc/arm-none-eabi/9.3.1/../../../../arm-none-eabi/lib/thumb/v7-m/nofp\libc.a(lib_a-findfp.o)
__stack                                           c:/users/roxanne/desktop/programming/adkit/tools/arm-none-eabi-gcc/9.3.1-2020q2-windows/bin/../lib/gcc/arm-none-eabi/9.3.1/../../../../arm-none-eabi/lib/thumb/v7-m/nofp/crt0.o
__subdf3                                          c:/users/roxanne/desktop/programming/adkit/tools/arm-none-eabi-gcc/9.3.1-2020q2-windows/bin/../lib/gcc/arm-none-eabi/9.3.1/thumb/v7-m/nofp\libgcc.a(_arm_addsubdf3.o)
__swbuf                                           c:/users/roxanne/desktop/programming/adkit/tools/arm-none-eabi-gcc/9.3.1-2020q2-windows/bin/../lib/gcc/arm-none-eabi/9.3.1/../../../../arm-none-eabi/lib/thumb/v7-m/nofp\libc.a(lib_a-wbuf.o)
__swbuf_r                                         c:/users/roxanne/desktop/programming/adkit/tools/arm-none-eabi-gcc/9.3.1-2020q2-windows/bin/../lib/gcc/arm-none-eabi/9.3.1/../../../../arm-none-eabi/lib/thumb/v7-m/nofp\libc.a(lib_a-wbuf.o)
                                                  c:/users/roxanne/desktop/programming/adkit/tools/arm-none-eabi-gcc/9.3.1-2020q2-windows/bin/../lib/gcc/arm-none-eabi/9.3.1/../../../../arm-none-eabi/lib/thumb/v7-m/nofp\libc.a(lib_a-putc.o)
                                                  c:/users/roxanne/desktop/programming/adkit/tools/arm-none-eabi-gcc/9.3.1-2020q2-windows/bin/../lib/gcc/arm-none-eabi/9.3.1/../../../../arm-none-eabi/lib/thumb/v7-m/nofp\libc.a(lib_a-fputwc.o)
__swhatbuf_r                                      c:/users/roxanne/desktop/programming/adkit/tools/arm-none-eabi-gcc/9.3.1-2020q2-windows/bin/../lib/gcc/arm-none-eabi/9.3.1/../../../../arm-none-eabi/lib/thumb/v7-m/nofp\libc.a(lib_a-makebuf.o)
__swrite                                          c:/users/roxanne/desktop/programming/adkit/tools/arm-none-eabi-gcc/9.3.1-2020q2-windows/bin/../lib/gcc/arm-none-eabi/9.3.1/../../../../arm-none-eabi/lib/thumb/v7-m/nofp\libc.a(lib_a-stdio.o)
                                                  c:/users/roxanne/desktop/programming/adkit/tools/arm-none-eabi-gcc/9.3.1-2020q2-windows/bin/../lib/gcc/arm-none-eabi/9.3.1/../../../../arm-none-eabi/lib/thumb/v7-m/nofp\libc.a(lib_a-findfp.o)
__swsetup_r                                       c:/users/roxanne/desktop/programming/adkit/tools/arm-none-eabi-gcc/9.3.1-2020q2-windows/bin/../lib/gcc/arm-none-eabi/9.3.1/../../../../arm-none-eabi/lib/thumb/v7-m/nofp\libc.a(lib_a-wsetup.o)
                                                  c:/users/roxanne/desktop/programming/adkit/tools/arm-none-eabi-gcc/9.3.1-2020q2-windows/bin/../lib/gcc/arm-none-eabi/9.3.1/../../../../arm-none-eabi/lib/thumb/v7-m/nofp\libc.a(lib_a-wbuf.o)
                                                  c:/users/roxanne/desktop/programming/adkit/tools/arm-none-eabi-gcc/9.3.1-2020q2-windows/bin/../lib/gcc/arm-none-eabi/9.3.1/../../../../arm-none-eabi/lib/thumb/v7-m/nofp\libc.a(lib_a-fvwrite.o)
                                                  c:/users/roxanne/desktop/programming/adkit/tools/arm-none-eabi-gcc/9.3.1-2020q2-windows/bin/../lib/gcc/arm-none-eabi/9.3.1/../../../../arm-none-eabi/lib/thumb/v7-m/nofp\libc.a(lib_a-vfprintf.o)
                                                  c:/users/roxanne/desktop/programming/adkit/tools/arm-none-eabi-gcc/9.3.1-2020q2-windows/bin/../lib/gcc/arm-none-eabi/9.3.1/../../../../arm-none-eabi/lib/thumb/v7-m/nofp\libc.a(lib_a-vfiprintf.o)
__udivmoddi4                                      c:/users/roxanne/desktop/programming/adkit/tools/arm-none-eabi-gcc/9.3.1-2020q2-windows/bin/../lib/gcc/arm-none-eabi/9.3.1/thumb/v7-m/nofp\libgcc.a(_udivmoddi4.o)
                                                  c:/users/roxanne/desktop/programming/adkit/tools/arm-none-eabi-gcc/9.3.1-2020q2-windows/bin/../lib/gcc/arm-none-eabi/9.3.1/thumb/v7-m/nofp\libgcc.a(_aeabi_uldivmod.o)
__ulp                                             c:/users/roxanne/desktop/programming/adkit/tools/arm-none-eabi-gcc/9.3.1-2020q2-windows/bin/../lib/gcc/arm-none-eabi/9.3.1/../../../../arm-none-eabi/lib/thumb/v7-m/nofp\libc.a(lib_a-mprec.o)
__unorddf2                                        c:/users/roxanne/desktop/programming/adkit/tools/arm-none-eabi-gcc/9.3.1-2020q2-windows/bin/../lib/gcc/arm-none-eabi/9.3.1/thumb/v7-m/nofp\libgcc.a(_arm_unorddf2.o)
_calloc_r                                         c:/users/roxanne/desktop/programming/adkit/tools/arm-none-eabi-gcc/9.3.1-2020q2-windows/bin/../lib/gcc/arm-none-eabi/9.3.1/../../../../arm-none-eabi/lib/thumb/v7-m/nofp\libc.a(lib_a-callocr.o)
                                                  c:/users/roxanne/desktop/programming/adkit/tools/arm-none-eabi-gcc/9.3.1-2020q2-windows/bin/../lib/gcc/arm-none-eabi/9.3.1/../../../../arm-none-eabi/lib/thumb/v7-m/nofp\libc.a(lib_a-mprec.o)
_cleanup                                          c:/users/roxanne/desktop/programming/adkit/tools/arm-none-eabi-gcc/9.3.1-2020q2-windows/bin/../lib/gcc/arm-none-eabi/9.3.1/../../../../arm-none-eabi/lib/thumb/v7-m/nofp\libc.a(lib_a-findfp.o)
_cleanup_r                                        c:/users/roxanne/desktop/programming/adkit/tools/arm-none-eabi-gcc/9.3.1-2020q2-windows/bin/../lib/gcc/arm-none-eabi/9.3.1/../../../../arm-none-eabi/lib/thumb/v7-m/nofp\libc.a(lib_a-findfp.o)
                                                  c:/users/roxanne/desktop/programming/adkit/tools/arm-none-eabi-gcc/9.3.1-2020q2-windows/bin/../lib/gcc/arm-none-eabi/9.3.1/../../../../arm-none-eabi/lib/thumb/v7-m/nofp\libc.a(lib_a-makebuf.o)
_close                                            ../../lib/ArduinoCore-sam/out/sam.a(syscalls_sam3.o)
                                                  c:/users/roxanne/desktop/programming/adkit/tools/arm-none-eabi-gcc/9.3.1-2020q2-windows/bin/../lib/gcc/arm-none-eabi/9.3.1/../../../../arm-none-eabi/lib/thumb/v7-m/nofp\libc.a(lib_a-closer.o)
_close_r                                          c:/users/roxanne/desktop/programming/adkit/tools/arm-none-eabi-gcc/9.3.1-2020q2-windows/bin/../lib/gcc/arm-none-eabi/9.3.1/../../../../arm-none-eabi/lib/thumb/v7-m/nofp\libc.a(lib_a-closer.o)
                                                  c:/users/roxanne/desktop/programming/adkit/tools/arm-none-eabi-gcc/9.3.1-2020q2-windows/bin/../lib/gcc/arm-none-eabi/9.3.1/../../../../arm-none-eabi/lib/thumb/v7-m/nofp\libc.a(lib_a-stdio.o)
_ctype_                                           c:/users/roxanne/desktop/programming/adkit/tools/arm-none-eabi-gcc/9.3.1-2020q2-windows/bin/../lib/gcc/arm-none-eabi/9.3.1/../../../../arm-none-eabi/lib/thumb/v7-m/nofp\libc.a(lib_a-ctype_.o)
                                                  c:/users/roxanne/desktop/programming/adkit/tools/arm-none-eabi-gcc/9.3.1-2020q2-windows/bin/../lib/gcc/arm-none-eabi/9.3.1/../../../../arm-none-eabi/lib/thumb/v7-m/nofp\libc.a(lib_a-locale.o)
_dtoa_r                                           c:/users/roxanne/desktop/programming/adkit/tools/arm-none-eabi-gcc/9.3.1-2020q2-windows/bin/../lib/gcc/arm-none-eabi/9.3.1/../../../../arm-none-eabi/lib/thumb/v7-m/nofp\libc.a(lib_a-dtoa.o)
                                                  c:/users/roxanne/desktop/programming/adkit/tools/arm-none-eabi-gcc/9.3.1-2020q2-windows/bin/../lib/gcc/arm-none-eabi/9.3.1/../../../../arm-none-eabi/lib/thumb/v7-m/nofp\libc.a(lib_a-vfprintf.o)
_end                                              ../../lib/ArduinoCore-sam/out/sam.a(syscalls_sam3.o)
_erelocate                                        ../../lib/ArduinoCore-sam/variants/arduino_due_x/libsam_sam3x8e_gcc_rel.a(startup_sam3xa.o)
_estack                                           ../../lib/ArduinoCore-sam/variants/arduino_due_x/libsam_sam3x8e_gcc_rel.a(startup_sam3xa.o)
_etext                                            ../../lib/ArduinoCore-sam/variants/arduino_due_x/libsam_sam3x8e_gcc_rel.a(startup_sam3xa.o)
_exit                                             ../../lib/ArduinoCore-sam/out/sam.a(syscalls_sam3.o)
                                                  c:/users/roxanne/desktop/programming/adkit/tools/arm-none-eabi-gcc/9.3.1-2020q2-windows/bin/../lib/gcc/arm-none-eabi/9.3.1/../../../../arm-none-eabi/lib/thumb/v7-m/nofp\libc.a(lib_a-exit.o)
                                                  c:/users/roxanne/desktop/programming/adkit/tools/arm-none-eabi-gcc/9.3.1-2020q2-windows/bin/../lib/gcc/arm-none-eabi/9.3.1/../../../../arm-none-eabi/lib/thumb/v7-m/nofp\libc.a(lib_a-abort.o)
_ezero                                            ../../lib/ArduinoCore-sam/variants/arduino_due_x/libsam_sam3x8e_gcc_rel.a(startup_sam3xa.o)
_fclose_r                                         c:/users/roxanne/desktop/programming/adkit/tools/arm-none-eabi-gcc/9.3.1-2020q2-windows/bin/../lib/gcc/arm-none-eabi/9.3.1/../../../../arm-none-eabi/lib/thumb/v7-m/nofp\libc.a(lib_a-fclose.o)
                                                  c:/users/roxanne/desktop/programming/adkit/tools/arm-none-eabi-gcc/9.3.1-2020q2-windows/bin/../lib/gcc/arm-none-eabi/9.3.1/../../../../arm-none-eabi/lib/thumb/v7-m/nofp\libc.a(lib_a-findfp.o)
_fflush_r                                         c:/users/roxanne/desktop/programming/adkit/tools/arm-none-eabi-gcc/9.3.1-2020q2-windows/bin/../lib/gcc/arm-none-eabi/9.3.1/../../../../arm-none-eabi/lib/thumb/v7-m/nofp\libc.a(lib_a-fflush.o)
                                                  c:/users/roxanne/desktop/programming/adkit/tools/arm-none-eabi-gcc/9.3.1-2020q2-windows/bin/../lib/gcc/arm-none-eabi/9.3.1/../../../../arm-none-eabi/lib/thumb/v7-m/nofp\libc.a(lib_a-wbuf.o)
                                                  c:/users/roxanne/desktop/programming/adkit/tools/arm-none-eabi-gcc/9.3.1-2020q2-windows/bin/../lib/gcc/arm-none-eabi/9.3.1/../../../../arm-none-eabi/lib/thumb/v7-m/nofp\libc.a(lib_a-fvwrite.o)
                                                  c:/users/roxanne/desktop/programming/adkit/tools/arm-none-eabi-gcc/9.3.1-2020q2-windows/bin/../lib/gcc/arm-none-eabi/9.3.1/../../../../arm-none-eabi/lib/thumb/v7-m/nofp\libc.a(lib_a-vfprintf.o)
                                                  c:/users/roxanne/desktop/programming/adkit/tools/arm-none-eabi-gcc/9.3.1-2020q2-windows/bin/../lib/gcc/arm-none-eabi/9.3.1/../../../../arm-none-eabi/lib/thumb/v7-m/nofp\libc.a(lib_a-vfiprintf.o)
_fini                                             c:/users/roxanne/desktop/programming/adkit/tools/arm-none-eabi-gcc/9.3.1-2020q2-windows/bin/../lib/gcc/arm-none-eabi/9.3.1/thumb/v7-m/nofp/crti.o
                                                  c:/users/roxanne/desktop/programming/adkit/tools/arm-none-eabi-gcc/9.3.1-2020q2-windows/bin/../lib/gcc/arm-none-eabi/9.3.1/../../../../arm-none-eabi/lib/thumb/v7-m/nofp\libc.a(lib_a-fini.o)
_fiprintf_r                                       c:/users/roxanne/desktop/programming/adkit/tools/arm-none-eabi-gcc/9.3.1-2020q2-windows/bin/../lib/gcc/arm-none-eabi/9.3.1/../../../../arm-none-eabi/lib/thumb/v7-m/nofp\libc.a(lib_a-fiprintf.o)
_fputwc_r                                         c:/users/roxanne/desktop/programming/adkit/tools/arm-none-eabi-gcc/9.3.1-2020q2-windows/bin/../lib/gcc/arm-none-eabi/9.3.1/../../../../arm-none-eabi/lib/thumb/v7-m/nofp\libc.a(lib_a-fputwc.o)
                                                  c:/users/roxanne/desktop/programming/adkit/tools/arm-none-eabi-gcc/9.3.1-2020q2-windows/bin/../lib/gcc/arm-none-eabi/9.3.1/../../../../arm-none-eabi/lib/thumb/v7-m/nofp\libc.a(lib_a-vfiprintf.o)
_free_r                                           c:/users/roxanne/desktop/programming/adkit/tools/arm-none-eabi-gcc/9.3.1-2020q2-windows/bin/../lib/gcc/arm-none-eabi/9.3.1/../../../../arm-none-eabi/lib/thumb/v7-m/nofp\libc.a(lib_a-freer.o)
                                                  c:/users/roxanne/desktop/programming/adkit/tools/arm-none-eabi-gcc/9.3.1-2020q2-windows/bin/../lib/gcc/arm-none-eabi/9.3.1/../../../../arm-none-eabi/lib/thumb/v7-m/nofp\libc.a(lib_a-fclose.o)
                                                  c:/users/roxanne/desktop/programming/adkit/tools/arm-none-eabi-gcc/9.3.1-2020q2-windows/bin/../lib/gcc/arm-none-eabi/9.3.1/../../../../arm-none-eabi/lib/thumb/v7-m/nofp\libc.a(lib_a-reent.o)
                                                  c:/users/roxanne/desktop/programming/adkit/tools/arm-none-eabi-gcc/9.3.1-2020q2-windows/bin/../lib/gcc/arm-none-eabi/9.3.1/../../../../arm-none-eabi/lib/thumb/v7-m/nofp\libc.a(lib_a-reallocr.o)
                                                  c:/users/roxanne/desktop/programming/adkit/tools/arm-none-eabi-gcc/9.3.1-2020q2-windows/bin/../lib/gcc/arm-none-eabi/9.3.1/../../../../arm-none-eabi/lib/thumb/v7-m/nofp\libc.a(lib_a-mallocr.o)
                                                  c:/users/roxanne/desktop/programming/adkit/tools/arm-none-eabi-gcc/9.3.1-2020q2-windows/bin/../lib/gcc/arm-none-eabi/9.3.1/../../../../arm-none-eabi/lib/thumb/v7-m/nofp\libc.a(lib_a-fvwrite.o)
                                                  c:/users/roxanne/desktop/programming/adkit/tools/arm-none-eabi-gcc/9.3.1-2020q2-windows/bin/../lib/gcc/arm-none-eabi/9.3.1/../../../../arm-none-eabi/lib/thumb/v7-m/nofp\libc.a(lib_a-fflush.o)
                                                  c:/users/roxanne/desktop/programming/adkit/tools/arm-none-eabi-gcc/9.3.1-2020q2-windows/bin/../lib/gcc/arm-none-eabi/9.3.1/../../../../arm-none-eabi/lib/thumb/v7-m/nofp\libc.a(lib_a-wsetup.o)
                                                  c:/users/roxanne/desktop/programming/adkit/tools/arm-none-eabi-gcc/9.3.1-2020q2-windows/bin/../lib/gcc/arm-none-eabi/9.3.1/../../../../arm-none-eabi/lib/thumb/v7-m/nofp\libc.a(lib_a-vfprintf.o)
_fstat                                            ../../lib/ArduinoCore-sam/out/sam.a(syscalls_sam3.o)
                                                  c:/users/roxanne/desktop/programming/adkit/tools/arm-none-eabi-gcc/9.3.1-2020q2-windows/bin/../lib/gcc/arm-none-eabi/9.3.1/../../../../arm-none-eabi/lib/thumb/v7-m/nofp\libc.a(lib_a-fstatr.o)
_fstat_r                                          c:/users/roxanne/desktop/programming/adkit/tools/arm-none-eabi-gcc/9.3.1-2020q2-windows/bin/../lib/gcc/arm-none-eabi/9.3.1/../../../../arm-none-eabi/lib/thumb/v7-m/nofp\libc.a(lib_a-fstatr.o)
                                                  c:/users/roxanne/desktop/programming/adkit/tools/arm-none-eabi-gcc/9.3.1-2020q2-windows/bin/../lib/gcc/arm-none-eabi/9.3.1/../../../../arm-none-eabi/lib/thumb/v7-m/nofp\libc.a(lib_a-makebuf.o)
_fwalk                                            c:/users/roxanne/desktop/programming/adkit/tools/arm-none-eabi-gcc/9.3.1-2020q2-windows/bin/../lib/gcc/arm-none-eabi/9.3.1/../../../../arm-none-eabi/lib/thumb/v7-m/nofp\libc.a(lib_a-fwalk.o)
                                                  c:/users/roxanne/desktop/programming/adkit/tools/arm-none-eabi-gcc/9.3.1-2020q2-windows/bin/../lib/gcc/arm-none-eabi/9.3.1/../../../../arm-none-eabi/lib/thumb/v7-m/nofp\libc.a(lib_a-findfp.o)
_fwalk_reent                                      c:/users/roxanne/desktop/programming/adkit/tools/arm-none-eabi-gcc/9.3.1-2020q2-windows/bin/../lib/gcc/arm-none-eabi/9.3.1/../../../../arm-none-eabi/lib/thumb/v7-m/nofp\libc.a(lib_a-fwalk.o)
                                                  c:/users/roxanne/desktop/programming/adkit/tools/arm-none-eabi-gcc/9.3.1-2020q2-windows/bin/../lib/gcc/arm-none-eabi/9.3.1/../../../../arm-none-eabi/lib/thumb/v7-m/nofp\libc.a(lib_a-findfp.o)
                                                  c:/users/roxanne/desktop/programming/adkit/tools/arm-none-eabi-gcc/9.3.1-2020q2-windows/bin/../lib/gcc/arm-none-eabi/9.3.1/../../../../arm-none-eabi/lib/thumb/v7-m/nofp\libc.a(lib_a-fflush.o)
_getpid                                           ../../lib/ArduinoCore-sam/out/sam.a(syscalls_sam3.o)
                                                  c:/users/roxanne/desktop/programming/adkit/tools/arm-none-eabi-gcc/9.3.1-2020q2-windows/bin/../lib/gcc/arm-none-eabi/9.3.1/../../../../arm-none-eabi/lib/thumb/v7-m/nofp\libc.a(lib_a-signalr.o)
_getpid_r                                         c:/users/roxanne/desktop/programming/adkit/tools/arm-none-eabi-gcc/9.3.1-2020q2-windows/bin/../lib/gcc/arm-none-eabi/9.3.1/../../../../arm-none-eabi/lib/thumb/v7-m/nofp\libc.a(lib_a-signalr.o)
                                                  c:/users/roxanne/desktop/programming/adkit/tools/arm-none-eabi-gcc/9.3.1-2020q2-windows/bin/../lib/gcc/arm-none-eabi/9.3.1/../../../../arm-none-eabi/lib/thumb/v7-m/nofp\libc.a(lib_a-signal.o)
_global_impure_ptr                                c:/users/roxanne/desktop/programming/adkit/tools/arm-none-eabi-gcc/9.3.1-2020q2-windows/bin/../lib/gcc/arm-none-eabi/9.3.1/../../../../arm-none-eabi/lib/thumb/v7-m/nofp\libc.a(lib_a-impure.o)
                                                  c:/users/roxanne/desktop/programming/adkit/tools/arm-none-eabi-gcc/9.3.1-2020q2-windows/bin/../lib/gcc/arm-none-eabi/9.3.1/../../../../arm-none-eabi/lib/thumb/v7-m/nofp\libc.a(lib_a-__atexit.o)
                                                  c:/users/roxanne/desktop/programming/adkit/tools/arm-none-eabi-gcc/9.3.1-2020q2-windows/bin/../lib/gcc/arm-none-eabi/9.3.1/../../../../arm-none-eabi/lib/thumb/v7-m/nofp\libc.a(lib_a-findfp.o)
                                                  c:/users/roxanne/desktop/programming/adkit/tools/arm-none-eabi-gcc/9.3.1-2020q2-windows/bin/../lib/gcc/arm-none-eabi/9.3.1/../../../../arm-none-eabi/lib/thumb/v7-m/nofp\libc.a(lib_a-fflush.o)
                                                  c:/users/roxanne/desktop/programming/adkit/tools/arm-none-eabi-gcc/9.3.1-2020q2-windows/bin/../lib/gcc/arm-none-eabi/9.3.1/../../../../arm-none-eabi/lib/thumb/v7-m/nofp\libc.a(lib_a-__call_atexit.o)
                                                  c:/users/roxanne/desktop/programming/adkit/tools/arm-none-eabi-gcc/9.3.1-2020q2-windows/bin/../lib/gcc/arm-none-eabi/9.3.1/../../../../arm-none-eabi/lib/thumb/v7-m/nofp\libc.a(lib_a-exit.o)
_impure_ptr                                       c:/users/roxanne/desktop/programming/adkit/tools/arm-none-eabi-gcc/9.3.1-2020q2-windows/bin/../lib/gcc/arm-none-eabi/9.3.1/../../../../arm-none-eabi/lib/thumb/v7-m/nofp\libc.a(lib_a-impure.o)
                                                  c:/users/roxanne/desktop/programming/adkit/tools/arm-none-eabi-gcc/9.3.1-2020q2-windows/bin/../lib/gcc/arm-none-eabi/9.3.1/../../../../arm-none-eabi/lib/thumb/v7-m/nofp\libc.a(lib_a-fclose.o)
                                                  c:/users/roxanne/desktop/programming/adkit/tools/arm-none-eabi-gcc/9.3.1-2020q2-windows/bin/../lib/gcc/arm-none-eabi/9.3.1/../../../../arm-none-eabi/lib/thumb/v7-m/nofp\libc.a(lib_a-wcrtomb.o)
                                                  c:/users/roxanne/desktop/programming/adkit/tools/arm-none-eabi-gcc/9.3.1-2020q2-windows/bin/../lib/gcc/arm-none-eabi/9.3.1/../../../../arm-none-eabi/lib/thumb/v7-m/nofp\libc.a(lib_a-wbuf.o)
                                                  c:/users/roxanne/desktop/programming/adkit/tools/arm-none-eabi-gcc/9.3.1-2020q2-windows/bin/../lib/gcc/arm-none-eabi/9.3.1/../../../../arm-none-eabi/lib/thumb/v7-m/nofp\libc.a(lib_a-reent.o)
                                                  c:/users/roxanne/desktop/programming/adkit/tools/arm-none-eabi-gcc/9.3.1-2020q2-windows/bin/../lib/gcc/arm-none-eabi/9.3.1/../../../../arm-none-eabi/lib/thumb/v7-m/nofp\libc.a(lib_a-putc.o)
                                                  c:/users/roxanne/desktop/programming/adkit/tools/arm-none-eabi-gcc/9.3.1-2020q2-windows/bin/../lib/gcc/arm-none-eabi/9.3.1/../../../../arm-none-eabi/lib/thumb/v7-m/nofp\libc.a(lib_a-locale.o)
                                                  c:/users/roxanne/desktop/programming/adkit/tools/arm-none-eabi-gcc/9.3.1-2020q2-windows/bin/../lib/gcc/arm-none-eabi/9.3.1/../../../../arm-none-eabi/lib/thumb/v7-m/nofp\libc.a(lib_a-fputwc.o)
                                                  c:/users/roxanne/desktop/programming/adkit/tools/arm-none-eabi-gcc/9.3.1-2020q2-windows/bin/../lib/gcc/arm-none-eabi/9.3.1/../../../../arm-none-eabi/lib/thumb/v7-m/nofp\libc.a(lib_a-findfp.o)
                                                  c:/users/roxanne/desktop/programming/adkit/tools/arm-none-eabi-gcc/9.3.1-2020q2-windows/bin/../lib/gcc/arm-none-eabi/9.3.1/../../../../arm-none-eabi/lib/thumb/v7-m/nofp\libc.a(lib_a-fflush.o)
                                                  c:/users/roxanne/desktop/programming/adkit/tools/arm-none-eabi-gcc/9.3.1-2020q2-windows/bin/../lib/gcc/arm-none-eabi/9.3.1/../../../../arm-none-eabi/lib/thumb/v7-m/nofp\libc.a(lib_a-wsetup.o)
                                                  c:/users/roxanne/desktop/programming/adkit/tools/arm-none-eabi-gcc/9.3.1-2020q2-windows/bin/../lib/gcc/arm-none-eabi/9.3.1/../../../../arm-none-eabi/lib/thumb/v7-m/nofp\libc.a(lib_a-vfprintf.o)
                                                  c:/users/roxanne/desktop/programming/adkit/tools/arm-none-eabi-gcc/9.3.1-2020q2-windows/bin/../lib/gcc/arm-none-eabi/9.3.1/../../../../arm-none-eabi/lib/thumb/v7-m/nofp\libc.a(lib_a-vfiprintf.o)
                                                  c:/users/roxanne/desktop/programming/adkit/tools/arm-none-eabi-gcc/9.3.1-2020q2-windows/bin/../lib/gcc/arm-none-eabi/9.3.1/../../../../arm-none-eabi/lib/thumb/v7-m/nofp\libc.a(lib_a-syskill.o)
                                                  c:/users/roxanne/desktop/programming/adkit/tools/arm-none-eabi-gcc/9.3.1-2020q2-windows/bin/../lib/gcc/arm-none-eabi/9.3.1/../../../../arm-none-eabi/lib/thumb/v7-m/nofp\libc.a(lib_a-signal.o)
                                                  c:/users/roxanne/desktop/programming/adkit/tools/arm-none-eabi-gcc/9.3.1-2020q2-windows/bin/../lib/gcc/arm-none-eabi/9.3.1/../../../../arm-none-eabi/lib/thumb/v7-m/nofp\libc.a(lib_a-putchar.o)
                                                  c:/users/roxanne/desktop/programming/adkit/tools/arm-none-eabi-gcc/9.3.1-2020q2-windows/bin/../lib/gcc/arm-none-eabi/9.3.1/../../../../arm-none-eabi/lib/thumb/v7-m/nofp\libc.a(lib_a-printf.o)
                                                  c:/users/roxanne/desktop/programming/adkit/tools/arm-none-eabi-gcc/9.3.1-2020q2-windows/bin/../lib/gcc/arm-none-eabi/9.3.1/../../../../arm-none-eabi/lib/thumb/v7-m/nofp\libc.a(lib_a-fiprintf.o)
                                                  c:/users/roxanne/desktop/programming/adkit/tools/arm-none-eabi-gcc/9.3.1-2020q2-windows/bin/../lib/gcc/arm-none-eabi/9.3.1/../../../../arm-none-eabi/lib/thumb/v7-m/nofp\libc.a(lib_a-assert.o)
_init                                             c:/users/roxanne/desktop/programming/adkit/tools/arm-none-eabi-gcc/9.3.1-2020q2-windows/bin/../lib/gcc/arm-none-eabi/9.3.1/thumb/v7-m/nofp/crti.o
                                                  c:/users/roxanne/desktop/programming/adkit/tools/arm-none-eabi-gcc/9.3.1-2020q2-windows/bin/../lib/gcc/arm-none-eabi/9.3.1/../../../../arm-none-eabi/lib/thumb/v7-m/nofp\libc.a(lib_a-init.o)
_init_signal                                      c:/users/roxanne/desktop/programming/adkit/tools/arm-none-eabi-gcc/9.3.1-2020q2-windows/bin/../lib/gcc/arm-none-eabi/9.3.1/../../../../arm-none-eabi/lib/thumb/v7-m/nofp\libc.a(lib_a-signal.o)
_init_signal_r                                    c:/users/roxanne/desktop/programming/adkit/tools/arm-none-eabi-gcc/9.3.1-2020q2-windows/bin/../lib/gcc/arm-none-eabi/9.3.1/../../../../arm-none-eabi/lib/thumb/v7-m/nofp\libc.a(lib_a-signal.o)
_isatty                                           ../../lib/ArduinoCore-sam/out/sam.a(syscalls_sam3.o)
                                                  c:/users/roxanne/desktop/programming/adkit/tools/arm-none-eabi-gcc/9.3.1-2020q2-windows/bin/../lib/gcc/arm-none-eabi/9.3.1/../../../../arm-none-eabi/lib/thumb/v7-m/nofp\libc.a(lib_a-isattyr.o)
_isatty_r                                         c:/users/roxanne/desktop/programming/adkit/tools/arm-none-eabi-gcc/9.3.1-2020q2-windows/bin/../lib/gcc/arm-none-eabi/9.3.1/../../../../arm-none-eabi/lib/thumb/v7-m/nofp\libc.a(lib_a-isattyr.o)
                                                  c:/users/roxanne/desktop/programming/adkit/tools/arm-none-eabi-gcc/9.3.1-2020q2-windows/bin/../lib/gcc/arm-none-eabi/9.3.1/../../../../arm-none-eabi/lib/thumb/v7-m/nofp\libc.a(lib_a-makebuf.o)
_kill                                             ../../lib/ArduinoCore-sam/out/sam.a(syscalls_sam3.o)
                                                  c:/users/roxanne/desktop/programming/adkit/tools/arm-none-eabi-gcc/9.3.1-2020q2-windows/bin/../lib/gcc/arm-none-eabi/9.3.1/../../../../arm-none-eabi/lib/thumb/v7-m/nofp\libc.a(lib_a-signalr.o)
_kill_r                                           c:/users/roxanne/desktop/programming/adkit/tools/arm-none-eabi-gcc/9.3.1-2020q2-windows/bin/../lib/gcc/arm-none-eabi/9.3.1/../../../../arm-none-eabi/lib/thumb/v7-m/nofp\libc.a(lib_a-signalr.o)
                                                  c:/users/roxanne/desktop/programming/adkit/tools/arm-none-eabi-gcc/9.3.1-2020q2-windows/bin/../lib/gcc/arm-none-eabi/9.3.1/../../../../arm-none-eabi/lib/thumb/v7-m/nofp\libc.a(lib_a-syskill.o)
                                                  c:/users/roxanne/desktop/programming/adkit/tools/arm-none-eabi-gcc/9.3.1-2020q2-windows/bin/../lib/gcc/arm-none-eabi/9.3.1/../../../../arm-none-eabi/lib/thumb/v7-m/nofp\libc.a(lib_a-signal.o)
_localeconv_r                                     c:/users/roxanne/desktop/programming/adkit/tools/arm-none-eabi-gcc/9.3.1-2020q2-windows/bin/../lib/gcc/arm-none-eabi/9.3.1/../../../../arm-none-eabi/lib/thumb/v7-m/nofp\libc.a(lib_a-localeconv.o)
                                                  c:/users/roxanne/desktop/programming/adkit/tools/arm-none-eabi-gcc/9.3.1-2020q2-windows/bin/../lib/gcc/arm-none-eabi/9.3.1/../../../../arm-none-eabi/lib/thumb/v7-m/nofp\libc.a(lib_a-vfprintf.o)
                                                  c:/users/roxanne/desktop/programming/adkit/tools/arm-none-eabi-gcc/9.3.1-2020q2-windows/bin/../lib/gcc/arm-none-eabi/9.3.1/../../../../arm-none-eabi/lib/thumb/v7-m/nofp\libc.a(lib_a-vfiprintf.o)
_lseek                                            ../../lib/ArduinoCore-sam/out/sam.a(syscalls_sam3.o)
                                                  c:/users/roxanne/desktop/programming/adkit/tools/arm-none-eabi-gcc/9.3.1-2020q2-windows/bin/../lib/gcc/arm-none-eabi/9.3.1/../../../../arm-none-eabi/lib/thumb/v7-m/nofp\libc.a(lib_a-lseekr.o)
_lseek_r                                          c:/users/roxanne/desktop/programming/adkit/tools/arm-none-eabi-gcc/9.3.1-2020q2-windows/bin/../lib/gcc/arm-none-eabi/9.3.1/../../../../arm-none-eabi/lib/thumb/v7-m/nofp\libc.a(lib_a-lseekr.o)
                                                  c:/users/roxanne/desktop/programming/adkit/tools/arm-none-eabi-gcc/9.3.1-2020q2-windows/bin/../lib/gcc/arm-none-eabi/9.3.1/../../../../arm-none-eabi/lib/thumb/v7-m/nofp\libc.a(lib_a-stdio.o)
_mainCRTStartup                                   c:/users/roxanne/desktop/programming/adkit/tools/arm-none-eabi-gcc/9.3.1-2020q2-windows/bin/../lib/gcc/arm-none-eabi/9.3.1/../../../../arm-none-eabi/lib/thumb/v7-m/nofp/crt0.o
_malloc_r                                         c:/users/roxanne/desktop/programming/adkit/tools/arm-none-eabi-gcc/9.3.1-2020q2-windows/bin/../lib/gcc/arm-none-eabi/9.3.1/../../../../arm-none-eabi/lib/thumb/v7-m/nofp\libc.a(lib_a-mallocr.o)
                                                  c:/users/roxanne/desktop/programming/adkit/tools/arm-none-eabi-gcc/9.3.1-2020q2-windows/bin/../lib/gcc/arm-none-eabi/9.3.1/../../../../arm-none-eabi/lib/thumb/v7-m/nofp\libc.a(lib_a-callocr.o)
                                                  c:/users/roxanne/desktop/programming/adkit/tools/arm-none-eabi-gcc/9.3.1-2020q2-windows/bin/../lib/gcc/arm-none-eabi/9.3.1/../../../../arm-none-eabi/lib/thumb/v7-m/nofp\libc.a(lib_a-reallocr.o)
                                                  c:/users/roxanne/desktop/programming/adkit/tools/arm-none-eabi-gcc/9.3.1-2020q2-windows/bin/../lib/gcc/arm-none-eabi/9.3.1/../../../../arm-none-eabi/lib/thumb/v7-m/nofp\libc.a(lib_a-makebuf.o)
                                                  c:/users/roxanne/desktop/programming/adkit/tools/arm-none-eabi-gcc/9.3.1-2020q2-windows/bin/../lib/gcc/arm-none-eabi/9.3.1/../../../../arm-none-eabi/lib/thumb/v7-m/nofp\libc.a(lib_a-fvwrite.o)
                                                  c:/users/roxanne/desktop/programming/adkit/tools/arm-none-eabi-gcc/9.3.1-2020q2-windows/bin/../lib/gcc/arm-none-eabi/9.3.1/../../../../arm-none-eabi/lib/thumb/v7-m/nofp\libc.a(lib_a-findfp.o)
                                                  c:/users/roxanne/desktop/programming/adkit/tools/arm-none-eabi-gcc/9.3.1-2020q2-windows/bin/../lib/gcc/arm-none-eabi/9.3.1/../../../../arm-none-eabi/lib/thumb/v7-m/nofp\libc.a(lib_a-vfprintf.o)
                                                  c:/users/roxanne/desktop/programming/adkit/tools/arm-none-eabi-gcc/9.3.1-2020q2-windows/bin/../lib/gcc/arm-none-eabi/9.3.1/../../../../arm-none-eabi/lib/thumb/v7-m/nofp\libc.a(lib_a-signal.o)
_malloc_trim_r                                    c:/users/roxanne/desktop/programming/adkit/tools/arm-none-eabi-gcc/9.3.1-2020q2-windows/bin/../lib/gcc/arm-none-eabi/9.3.1/../../../../arm-none-eabi/lib/thumb/v7-m/nofp\libc.a(lib_a-freer.o)
_mbtowc_r                                         c:/users/roxanne/desktop/programming/adkit/tools/arm-none-eabi-gcc/9.3.1-2020q2-windows/bin/../lib/gcc/arm-none-eabi/9.3.1/../../../../arm-none-eabi/lib/thumb/v7-m/nofp\libc.a(lib_a-mbtowc_r.o)
_mprec_log10                                      c:/users/roxanne/desktop/programming/adkit/tools/arm-none-eabi-gcc/9.3.1-2020q2-windows/bin/../lib/gcc/arm-none-eabi/9.3.1/../../../../arm-none-eabi/lib/thumb/v7-m/nofp\libc.a(lib_a-mprec.o)
_printf_r                                         c:/users/roxanne/desktop/programming/adkit/tools/arm-none-eabi-gcc/9.3.1-2020q2-windows/bin/../lib/gcc/arm-none-eabi/9.3.1/../../../../arm-none-eabi/lib/thumb/v7-m/nofp\libc.a(lib_a-printf.o)
_putc_r                                           c:/users/roxanne/desktop/programming/adkit/tools/arm-none-eabi-gcc/9.3.1-2020q2-windows/bin/../lib/gcc/arm-none-eabi/9.3.1/../../../../arm-none-eabi/lib/thumb/v7-m/nofp\libc.a(lib_a-putc.o)
                                                  c:/users/roxanne/desktop/programming/adkit/tools/arm-none-eabi-gcc/9.3.1-2020q2-windows/bin/../lib/gcc/arm-none-eabi/9.3.1/../../../../arm-none-eabi/lib/thumb/v7-m/nofp\libc.a(lib_a-putchar.o)
_putchar_r                                        c:/users/roxanne/desktop/programming/adkit/tools/arm-none-eabi-gcc/9.3.1-2020q2-windows/bin/../lib/gcc/arm-none-eabi/9.3.1/../../../../arm-none-eabi/lib/thumb/v7-m/nofp\libc.a(lib_a-putchar.o)
_raise_r                                          c:/users/roxanne/desktop/programming/adkit/tools/arm-none-eabi-gcc/9.3.1-2020q2-windows/bin/../lib/gcc/arm-none-eabi/9.3.1/../../../../arm-none-eabi/lib/thumb/v7-m/nofp\libc.a(lib_a-signal.o)
_read                                             ../../lib/ArduinoCore-sam/out/sam.a(syscalls_sam3.o)
                                                  c:/users/roxanne/desktop/programming/adkit/tools/arm-none-eabi-gcc/9.3.1-2020q2-windows/bin/../lib/gcc/arm-none-eabi/9.3.1/../../../../arm-none-eabi/lib/thumb/v7-m/nofp\libc.a(lib_a-readr.o)
_read_r                                           c:/users/roxanne/desktop/programming/adkit/tools/arm-none-eabi-gcc/9.3.1-2020q2-windows/bin/../lib/gcc/arm-none-eabi/9.3.1/../../../../arm-none-eabi/lib/thumb/v7-m/nofp\libc.a(lib_a-readr.o)
                                                  c:/users/roxanne/desktop/programming/adkit/tools/arm-none-eabi-gcc/9.3.1-2020q2-windows/bin/../lib/gcc/arm-none-eabi/9.3.1/../../../../arm-none-eabi/lib/thumb/v7-m/nofp\libc.a(lib_a-stdio.o)
_realloc_r                                        c:/users/roxanne/desktop/programming/adkit/tools/arm-none-eabi-gcc/9.3.1-2020q2-windows/bin/../lib/gcc/arm-none-eabi/9.3.1/../../../../arm-none-eabi/lib/thumb/v7-m/nofp\libc.a(lib_a-reallocr.o)
                                                  c:/users/roxanne/desktop/programming/adkit/tools/arm-none-eabi-gcc/9.3.1-2020q2-windows/bin/../lib/gcc/arm-none-eabi/9.3.1/../../../../arm-none-eabi/lib/thumb/v7-m/nofp\libc.a(lib_a-fvwrite.o)
_reclaim_reent                                    c:/users/roxanne/desktop/programming/adkit/tools/arm-none-eabi-gcc/9.3.1-2020q2-windows/bin/../lib/gcc/arm-none-eabi/9.3.1/../../../../arm-none-eabi/lib/thumb/v7-m/nofp\libc.a(lib_a-reent.o)
_sbrk                                             ../../lib/ArduinoCore-sam/out/sam.a(syscalls_sam3.o)
                                                  c:/users/roxanne/desktop/programming/adkit/tools/arm-none-eabi-gcc/9.3.1-2020q2-windows/bin/../lib/gcc/arm-none-eabi/9.3.1/../../../../arm-none-eabi/lib/thumb/v7-m/nofp\libc.a(lib_a-sbrkr.o)
_sbrk_r                                           c:/users/roxanne/desktop/programming/adkit/tools/arm-none-eabi-gcc/9.3.1-2020q2-windows/bin/../lib/gcc/arm-none-eabi/9.3.1/../../../../arm-none-eabi/lib/thumb/v7-m/nofp\libc.a(lib_a-sbrkr.o)
                                                  c:/users/roxanne/desktop/programming/adkit/tools/arm-none-eabi-gcc/9.3.1-2020q2-windows/bin/../lib/gcc/arm-none-eabi/9.3.1/../../../../arm-none-eabi/lib/thumb/v7-m/nofp\libc.a(lib_a-mallocr.o)
                                                  c:/users/roxanne/desktop/programming/adkit/tools/arm-none-eabi-gcc/9.3.1-2020q2-windows/bin/../lib/gcc/arm-none-eabi/9.3.1/../../../../arm-none-eabi/lib/thumb/v7-m/nofp\libc.a(lib_a-freer.o)
_setlocale_r                                      c:/users/roxanne/desktop/programming/adkit/tools/arm-none-eabi-gcc/9.3.1-2020q2-windows/bin/../lib/gcc/arm-none-eabi/9.3.1/../../../../arm-none-eabi/lib/thumb/v7-m/nofp\libc.a(lib_a-locale.o)
_sfixed                                           ../../lib/ArduinoCore-sam/variants/arduino_due_x/libsam_sam3x8e_gcc_rel.a(startup_sam3xa.o)
_signal_r                                         c:/users/roxanne/desktop/programming/adkit/tools/arm-none-eabi-gcc/9.3.1-2020q2-windows/bin/../lib/gcc/arm-none-eabi/9.3.1/../../../../arm-none-eabi/lib/thumb/v7-m/nofp\libc.a(lib_a-signal.o)
_srelocate                                        ../../lib/ArduinoCore-sam/variants/arduino_due_x/libsam_sam3x8e_gcc_rel.a(startup_sam3xa.o)
_stack_init                                       c:/users/roxanne/desktop/programming/adkit/tools/arm-none-eabi-gcc/9.3.1-2020q2-windows/bin/../lib/gcc/arm-none-eabi/9.3.1/../../../../arm-none-eabi/lib/thumb/v7-m/nofp/crt0.o
_start                                            c:/users/roxanne/desktop/programming/adkit/tools/arm-none-eabi-gcc/9.3.1-2020q2-windows/bin/../lib/gcc/arm-none-eabi/9.3.1/../../../../arm-none-eabi/lib/thumb/v7-m/nofp/crt0.o
_szero                                            ../../lib/ArduinoCore-sam/variants/arduino_due_x/libsam_sam3x8e_gcc_rel.a(startup_sam3xa.o)
_vfiprintf_r                                      c:/users/roxanne/desktop/programming/adkit/tools/arm-none-eabi-gcc/9.3.1-2020q2-windows/bin/../lib/gcc/arm-none-eabi/9.3.1/../../../../arm-none-eabi/lib/thumb/v7-m/nofp\libc.a(lib_a-vfiprintf.o)
                                                  c:/users/roxanne/desktop/programming/adkit/tools/arm-none-eabi-gcc/9.3.1-2020q2-windows/bin/../lib/gcc/arm-none-eabi/9.3.1/../../../../arm-none-eabi/lib/thumb/v7-m/nofp\libc.a(lib_a-fiprintf.o)
_vfprintf_r                                       c:/users/roxanne/desktop/programming/adkit/tools/arm-none-eabi-gcc/9.3.1-2020q2-windows/bin/../lib/gcc/arm-none-eabi/9.3.1/../../../../arm-none-eabi/lib/thumb/v7-m/nofp\libc.a(lib_a-vfprintf.o)
                                                  c:/users/roxanne/desktop/programming/adkit/tools/arm-none-eabi-gcc/9.3.1-2020q2-windows/bin/../lib/gcc/arm-none-eabi/9.3.1/../../../../arm-none-eabi/lib/thumb/v7-m/nofp\libc.a(lib_a-printf.o)
_watchdogDefaultSetup                             ../../lib/ArduinoCore-sam/out/sam.a(watchdog.o)
_wcrtomb_r                                        c:/users/roxanne/desktop/programming/adkit/tools/arm-none-eabi-gcc/9.3.1-2020q2-windows/bin/../lib/gcc/arm-none-eabi/9.3.1/../../../../arm-none-eabi/lib/thumb/v7-m/nofp\libc.a(lib_a-wcrtomb.o)
                                                  c:/users/roxanne/desktop/programming/adkit/tools/arm-none-eabi-gcc/9.3.1-2020q2-windows/bin/../lib/gcc/arm-none-eabi/9.3.1/../../../../arm-none-eabi/lib/thumb/v7-m/nofp\libc.a(lib_a-fputwc.o)
_wctomb_r                                         c:/users/roxanne/desktop/programming/adkit/tools/arm-none-eabi-gcc/9.3.1-2020q2-windows/bin/../lib/gcc/arm-none-eabi/9.3.1/../../../../arm-none-eabi/lib/thumb/v7-m/nofp\libc.a(lib_a-wctomb_r.o)
_write                                            ../../lib/ArduinoCore-sam/out/sam.a(syscalls_sam3.o)
                                                  c:/users/roxanne/desktop/programming/adkit/tools/arm-none-eabi-gcc/9.3.1-2020q2-windows/bin/../lib/gcc/arm-none-eabi/9.3.1/../../../../arm-none-eabi/lib/thumb/v7-m/nofp\libc.a(lib_a-writer.o)
_write_r                                          c:/users/roxanne/desktop/programming/adkit/tools/arm-none-eabi-gcc/9.3.1-2020q2-windows/bin/../lib/gcc/arm-none-eabi/9.3.1/../../../../arm-none-eabi/lib/thumb/v7-m/nofp\libc.a(lib_a-writer.o)
                                                  c:/users/roxanne/desktop/programming/adkit/tools/arm-none-eabi-gcc/9.3.1-2020q2-windows/bin/../lib/gcc/arm-none-eabi/9.3.1/../../../../arm-none-eabi/lib/thumb/v7-m/nofp\libc.a(lib_a-stdio.o)
abort                                             c:/users/roxanne/desktop/programming/adkit/tools/arm-none-eabi-gcc/9.3.1-2020q2-windows/bin/../lib/gcc/arm-none-eabi/9.3.1/../../../../arm-none-eabi/lib/thumb/v7-m/nofp\libc.a(lib_a-abort.o)
                                                  c:/users/roxanne/desktop/programming/adkit/tools/arm-none-eabi-gcc/9.3.1-2020q2-windows/bin/../lib/gcc/arm-none-eabi/9.3.1/../../../../arm-none-eabi/lib/thumb/v7-m/nofp\libc.a(lib_a-assert.o)
                                                  c:/users/roxanne/desktop/programming/adkit/tools/arm-none-eabi-gcc/9.3.1-2020q2-windows/bin/../lib/gcc/arm-none-eabi/9.3.1/thumb/v7-m/nofp\libgcc.a(pr-support.o)
                                                  c:/users/roxanne/desktop/programming/adkit/tools/arm-none-eabi-gcc/9.3.1-2020q2-windows/bin/../lib/gcc/arm-none-eabi/9.3.1/thumb/v7-m/nofp\libgcc.a(unwind-arm.o)
adc_configure_power_save                          ../../lib/ArduinoCore-sam/variants/arduino_due_x/libsam_sam3x8e_gcc_rel.a(adc.o)
adc_configure_sequence                            ../../lib/ArduinoCore-sam/variants/arduino_due_x/libsam_sam3x8e_gcc_rel.a(adc.o)
adc_configure_timing                              ../../lib/ArduinoCore-sam/variants/arduino_due_x/libsam_sam3x8e_gcc_rel.a(adc.o)
                                                  ../../lib/ArduinoCore-sam/out/sam.a(variant.o)
adc_configure_trigger                             ../../lib/ArduinoCore-sam/variants/arduino_due_x/libsam_sam3x8e_gcc_rel.a(adc.o)
                                                  ../../lib/ArduinoCore-sam/out/sam.a(variant.o)
adc_disable_all_channel                           ../../lib/ArduinoCore-sam/variants/arduino_due_x/libsam_sam3x8e_gcc_rel.a(adc.o)
                                                  ../../lib/ArduinoCore-sam/out/sam.a(variant.o)
adc_disable_anch                                  ../../lib/ArduinoCore-sam/variants/arduino_due_x/libsam_sam3x8e_gcc_rel.a(adc.o)
adc_disable_channel                               ../../lib/ArduinoCore-sam/variants/arduino_due_x/libsam_sam3x8e_gcc_rel.a(adc.o)
                                                  ../../lib/ArduinoCore-sam/out/sam.a(wiring_digital.o)
                                                  ../../lib/ArduinoCore-sam/out/sam.a(wiring_analog.o)
adc_disable_channel_differential_input            ../../lib/ArduinoCore-sam/variants/arduino_due_x/libsam_sam3x8e_gcc_rel.a(adc.o)
adc_disable_channel_input_offset                  ../../lib/ArduinoCore-sam/variants/arduino_due_x/libsam_sam3x8e_gcc_rel.a(adc.o)
adc_disable_interrupt                             ../../lib/ArduinoCore-sam/variants/arduino_due_x/libsam_sam3x8e_gcc_rel.a(adc.o)
                                                  ../../lib/ArduinoCore-sam/out/sam.a(variant.o)
adc_disable_tag                                   ../../lib/ArduinoCore-sam/variants/arduino_due_x/libsam_sam3x8e_gcc_rel.a(adc.o)
adc_disable_ts                                    ../../lib/ArduinoCore-sam/variants/arduino_due_x/libsam_sam3x8e_gcc_rel.a(adc.o)
adc_enable_all_channel                            ../../lib/ArduinoCore-sam/variants/arduino_due_x/libsam_sam3x8e_gcc_rel.a(adc.o)
adc_enable_anch                                   ../../lib/ArduinoCore-sam/variants/arduino_due_x/libsam_sam3x8e_gcc_rel.a(adc.o)
adc_enable_channel                                ../../lib/ArduinoCore-sam/variants/arduino_due_x/libsam_sam3x8e_gcc_rel.a(adc.o)
                                                  ../../lib/ArduinoCore-sam/out/sam.a(wiring_analog.o)
adc_enable_channel_differential_input             ../../lib/ArduinoCore-sam/variants/arduino_due_x/libsam_sam3x8e_gcc_rel.a(adc.o)
adc_enable_channel_input_offset                   ../../lib/ArduinoCore-sam/variants/arduino_due_x/libsam_sam3x8e_gcc_rel.a(adc.o)
adc_enable_interrupt                              ../../lib/ArduinoCore-sam/variants/arduino_due_x/libsam_sam3x8e_gcc_rel.a(adc.o)
adc_enable_tag                                    ../../lib/ArduinoCore-sam/variants/arduino_due_x/libsam_sam3x8e_gcc_rel.a(adc.o)
adc_enable_ts                                     ../../lib/ArduinoCore-sam/variants/arduino_due_x/libsam_sam3x8e_gcc_rel.a(adc.o)
adc_get_actual_adc_clock                          ../../lib/ArduinoCore-sam/variants/arduino_due_x/libsam_sam3x8e_gcc_rel.a(adc.o)
adc_get_channel_status                            ../../lib/ArduinoCore-sam/variants/arduino_due_x/libsam_sam3x8e_gcc_rel.a(adc.o)
                                                  ../../lib/ArduinoCore-sam/out/sam.a(wiring_analog.o)
adc_get_channel_value                             ../../lib/ArduinoCore-sam/variants/arduino_due_x/libsam_sam3x8e_gcc_rel.a(adc.o)
adc_get_comparison_mode                           ../../lib/ArduinoCore-sam/variants/arduino_due_x/libsam_sam3x8e_gcc_rel.a(adc.o)
adc_get_interrupt_mask                            ../../lib/ArduinoCore-sam/variants/arduino_due_x/libsam_sam3x8e_gcc_rel.a(adc.o)
adc_get_latest_value                              ../../lib/ArduinoCore-sam/variants/arduino_due_x/libsam_sam3x8e_gcc_rel.a(adc.o)
                                                  ../../lib/ArduinoCore-sam/out/sam.a(wiring_analog.o)
adc_get_overrun_status                            ../../lib/ArduinoCore-sam/variants/arduino_due_x/libsam_sam3x8e_gcc_rel.a(adc.o)
adc_get_pdc_base                                  ../../lib/ArduinoCore-sam/variants/arduino_due_x/libsam_sam3x8e_gcc_rel.a(adc.o)
adc_get_status                                    ../../lib/ArduinoCore-sam/variants/arduino_due_x/libsam_sam3x8e_gcc_rel.a(adc.o)
                                                  ../../lib/ArduinoCore-sam/out/sam.a(wiring_analog.o)
adc_get_tag                                       ../../lib/ArduinoCore-sam/variants/arduino_due_x/libsam_sam3x8e_gcc_rel.a(adc.o)
adc_get_writeprotect_status                       ../../lib/ArduinoCore-sam/variants/arduino_due_x/libsam_sam3x8e_gcc_rel.a(adc.o)
adc_init                                          ../../lib/ArduinoCore-sam/variants/arduino_due_x/libsam_sam3x8e_gcc_rel.a(adc.o)
                                                  ../../lib/ArduinoCore-sam/out/sam.a(variant.o)
adc_set_bias_current                              ../../lib/ArduinoCore-sam/variants/arduino_due_x/libsam_sam3x8e_gcc_rel.a(adc.o)
adc_set_channel_input_gain                        ../../lib/ArduinoCore-sam/variants/arduino_due_x/libsam_sam3x8e_gcc_rel.a(adc.o)
adc_set_comparison_channel                        ../../lib/ArduinoCore-sam/variants/arduino_due_x/libsam_sam3x8e_gcc_rel.a(adc.o)
adc_set_comparison_mode                           ../../lib/ArduinoCore-sam/variants/arduino_due_x/libsam_sam3x8e_gcc_rel.a(adc.o)
adc_set_comparison_window                         ../../lib/ArduinoCore-sam/variants/arduino_due_x/libsam_sam3x8e_gcc_rel.a(adc.o)
adc_set_resolution                                ../../lib/ArduinoCore-sam/variants/arduino_due_x/libsam_sam3x8e_gcc_rel.a(adc.o)
adc_set_writeprotect                              ../../lib/ArduinoCore-sam/variants/arduino_due_x/libsam_sam3x8e_gcc_rel.a(adc.o)
adc_start                                         ../../lib/ArduinoCore-sam/variants/arduino_due_x/libsam_sam3x8e_gcc_rel.a(adc.o)
                                                  ../../lib/ArduinoCore-sam/out/sam.a(wiring_analog.o)
adc_start_sequencer                               ../../lib/ArduinoCore-sam/variants/arduino_due_x/libsam_sam3x8e_gcc_rel.a(adc.o)
adc_stop                                          ../../lib/ArduinoCore-sam/variants/arduino_due_x/libsam_sam3x8e_gcc_rel.a(adc.o)
adc_stop_sequencer                                ../../lib/ArduinoCore-sam/variants/arduino_due_x/libsam_sam3x8e_gcc_rel.a(adc.o)
analogOutputInit                                  ../../lib/ArduinoCore-sam/out/sam.a(wiring_analog.o)
                                                  ../../lib/ArduinoCore-sam/out/sam.a(variant.o)
analogRead                                        ../../lib/ArduinoCore-sam/out/sam.a(wiring_analog.o)
analogReadResolution                              ../../lib/ArduinoCore-sam/out/sam.a(wiring_analog.o)
analogReference                                   ../../lib/ArduinoCore-sam/out/sam.a(wiring_analog.o)
analogWrite                                       ../../lib/ArduinoCore-sam/out/sam.a(wiring_analog.o)
analogWriteResolution                             ../../lib/ArduinoCore-sam/out/sam.a(wiring_analog.o)
analog_reference                                  ../../lib/ArduinoCore-sam/out/sam.a(wiring_analog.o)
application                                       build/asciz.a(application.o)
                                                  build/asciz.a(main.o)
atexit                                            c:/users/roxanne/desktop/programming/adkit/tools/arm-none-eabi-gcc/9.3.1-2020q2-windows/bin/../lib/gcc/arm-none-eabi/9.3.1/../../../../arm-none-eabi/lib/thumb/v7-m/nofp\libc.a(lib_a-atexit.o)
                                                  c:/users/roxanne/desktop/programming/adkit/tools/arm-none-eabi-gcc/9.3.1-2020q2-windows/bin/../lib/gcc/arm-none-eabi/9.3.1/../../../../arm-none-eabi/lib/thumb/v7-m/nofp\libc.a(lib_a-__call_atexit.o)
                                                  c:/users/roxanne/desktop/programming/adkit/tools/arm-none-eabi-gcc/9.3.1-2020q2-windows/bin/../lib/gcc/arm-none-eabi/9.3.1/../../../../arm-none-eabi/lib/thumb/v7-m/nofp/crt0.o
banzai                                            ../../lib/ArduinoCore-sam/out/sam.a(Reset.o)
cancelReset                                       ../../lib/ArduinoCore-sam/out/sam.a(Reset.o)
cleanup_glue                                      c:/users/roxanne/desktop/programming/adkit/tools/arm-none-eabi-gcc/9.3.1-2020q2-windows/bin/../lib/gcc/arm-none-eabi/9.3.1/../../../../arm-none-eabi/lib/thumb/v7-m/nofp\libc.a(lib_a-reent.o)
dacc_disable_channel                              ../../lib/ArduinoCore-sam/variants/arduino_due_x/libsam_sam3x8e_gcc_rel.a(dacc.o)
dacc_disable_interrupt                            ../../lib/ArduinoCore-sam/variants/arduino_due_x/libsam_sam3x8e_gcc_rel.a(dacc.o)
dacc_disable_trigger                              ../../lib/ArduinoCore-sam/variants/arduino_due_x/libsam_sam3x8e_gcc_rel.a(dacc.o)
dacc_enable_channel                               ../../lib/ArduinoCore-sam/variants/arduino_due_x/libsam_sam3x8e_gcc_rel.a(dacc.o)
                                                  ../../lib/ArduinoCore-sam/out/sam.a(wiring_analog.o)
dacc_enable_flexible_selection                    ../../lib/ArduinoCore-sam/variants/arduino_due_x/libsam_sam3x8e_gcc_rel.a(dacc.o)
dacc_enable_interrupt                             ../../lib/ArduinoCore-sam/variants/arduino_due_x/libsam_sam3x8e_gcc_rel.a(dacc.o)
dacc_get_analog_control                           ../../lib/ArduinoCore-sam/variants/arduino_due_x/libsam_sam3x8e_gcc_rel.a(dacc.o)
dacc_get_channel_status                           ../../lib/ArduinoCore-sam/variants/arduino_due_x/libsam_sam3x8e_gcc_rel.a(dacc.o)
                                                  ../../lib/ArduinoCore-sam/out/sam.a(wiring_analog.o)
dacc_get_interrupt_mask                           ../../lib/ArduinoCore-sam/variants/arduino_due_x/libsam_sam3x8e_gcc_rel.a(dacc.o)
dacc_get_interrupt_status                         ../../lib/ArduinoCore-sam/variants/arduino_due_x/libsam_sam3x8e_gcc_rel.a(dacc.o)
                                                  ../../lib/ArduinoCore-sam/out/sam.a(wiring_analog.o)
dacc_get_pdc_base                                 ../../lib/ArduinoCore-sam/variants/arduino_due_x/libsam_sam3x8e_gcc_rel.a(dacc.o)
dacc_get_writeprotect_status                      ../../lib/ArduinoCore-sam/variants/arduino_due_x/libsam_sam3x8e_gcc_rel.a(dacc.o)
dacc_reset                                        ../../lib/ArduinoCore-sam/variants/arduino_due_x/libsam_sam3x8e_gcc_rel.a(dacc.o)
                                                  ../../lib/ArduinoCore-sam/out/sam.a(wiring_analog.o)
dacc_set_analog_control                           ../../lib/ArduinoCore-sam/variants/arduino_due_x/libsam_sam3x8e_gcc_rel.a(dacc.o)
                                                  ../../lib/ArduinoCore-sam/out/sam.a(wiring_analog.o)
dacc_set_channel_selection                        ../../lib/ArduinoCore-sam/variants/arduino_due_x/libsam_sam3x8e_gcc_rel.a(dacc.o)
                                                  ../../lib/ArduinoCore-sam/out/sam.a(wiring_analog.o)
dacc_set_power_save                               ../../lib/ArduinoCore-sam/variants/arduino_due_x/libsam_sam3x8e_gcc_rel.a(dacc.o)
                                                  ../../lib/ArduinoCore-sam/out/sam.a(wiring_analog.o)
dacc_set_timing                                   ../../lib/ArduinoCore-sam/variants/arduino_due_x/libsam_sam3x8e_gcc_rel.a(dacc.o)
                                                  ../../lib/ArduinoCore-sam/out/sam.a(wiring_analog.o)
dacc_set_transfer_mode                            ../../lib/ArduinoCore-sam/variants/arduino_due_x/libsam_sam3x8e_gcc_rel.a(dacc.o)
                                                  ../../lib/ArduinoCore-sam/out/sam.a(wiring_analog.o)
dacc_set_trigger                                  ../../lib/ArduinoCore-sam/variants/arduino_due_x/libsam_sam3x8e_gcc_rel.a(dacc.o)
dacc_set_writeprotect                             ../../lib/ArduinoCore-sam/variants/arduino_due_x/libsam_sam3x8e_gcc_rel.a(dacc.o)
dacc_write_conversion_data                        ../../lib/ArduinoCore-sam/variants/arduino_due_x/libsam_sam3x8e_gcc_rel.a(dacc.o)
                                                  ../../lib/ArduinoCore-sam/out/sam.a(wiring_analog.o)
delay                                             ../../lib/ArduinoCore-sam/out/sam.a(wiring.o)
                                                  build/asciz.a(main.o)
digitalRead                                       ../../lib/ArduinoCore-sam/out/sam.a(wiring_digital.o)
digitalWrite                                      ../../lib/ArduinoCore-sam/out/sam.a(wiring_digital.o)
                                                  ../../lib/ArduinoCore-sam/out/sam.a(wiring_analog.o)
                                                  ../../lib/ArduinoCore-sam/out/sam.a(variant.o)
errno                                             c:/users/roxanne/desktop/programming/adkit/tools/arm-none-eabi-gcc/9.3.1-2020q2-windows/bin/../lib/gcc/arm-none-eabi/9.3.1/../../../../arm-none-eabi/lib/thumb/v7-m/nofp\libc.a(lib_a-reent.o)
                                                  c:/users/roxanne/desktop/programming/adkit/tools/arm-none-eabi-gcc/9.3.1-2020q2-windows/bin/../lib/gcc/arm-none-eabi/9.3.1/../../../../arm-none-eabi/lib/thumb/v7-m/nofp\libc.a(lib_a-readr.o)
                                                  c:/users/roxanne/desktop/programming/adkit/tools/arm-none-eabi-gcc/9.3.1-2020q2-windows/bin/../lib/gcc/arm-none-eabi/9.3.1/../../../../arm-none-eabi/lib/thumb/v7-m/nofp\libc.a(lib_a-lseekr.o)
                                                  c:/users/roxanne/desktop/programming/adkit/tools/arm-none-eabi-gcc/9.3.1-2020q2-windows/bin/../lib/gcc/arm-none-eabi/9.3.1/../../../../arm-none-eabi/lib/thumb/v7-m/nofp\libc.a(lib_a-isattyr.o)
                                                  c:/users/roxanne/desktop/programming/adkit/tools/arm-none-eabi-gcc/9.3.1-2020q2-windows/bin/../lib/gcc/arm-none-eabi/9.3.1/../../../../arm-none-eabi/lib/thumb/v7-m/nofp\libc.a(lib_a-fstatr.o)
                                                  c:/users/roxanne/desktop/programming/adkit/tools/arm-none-eabi-gcc/9.3.1-2020q2-windows/bin/../lib/gcc/arm-none-eabi/9.3.1/../../../../arm-none-eabi/lib/thumb/v7-m/nofp\libc.a(lib_a-closer.o)
                                                  c:/users/roxanne/desktop/programming/adkit/tools/arm-none-eabi-gcc/9.3.1-2020q2-windows/bin/../lib/gcc/arm-none-eabi/9.3.1/../../../../arm-none-eabi/lib/thumb/v7-m/nofp\libc.a(lib_a-writer.o)
                                                  c:/users/roxanne/desktop/programming/adkit/tools/arm-none-eabi-gcc/9.3.1-2020q2-windows/bin/../lib/gcc/arm-none-eabi/9.3.1/../../../../arm-none-eabi/lib/thumb/v7-m/nofp\libc.a(lib_a-sbrkr.o)
                                                  c:/users/roxanne/desktop/programming/adkit/tools/arm-none-eabi-gcc/9.3.1-2020q2-windows/bin/../lib/gcc/arm-none-eabi/9.3.1/../../../../arm-none-eabi/lib/thumb/v7-m/nofp\libc.a(lib_a-signalr.o)
exception_table                                   ../../lib/ArduinoCore-sam/variants/arduino_due_x/libsam_sam3x8e_gcc_rel.a(startup_sam3xa.o)
exit                                              c:/users/roxanne/desktop/programming/adkit/tools/arm-none-eabi-gcc/9.3.1-2020q2-windows/bin/../lib/gcc/arm-none-eabi/9.3.1/../../../../arm-none-eabi/lib/thumb/v7-m/nofp\libc.a(lib_a-exit.o)
                                                  c:/users/roxanne/desktop/programming/adkit/tools/arm-none-eabi-gcc/9.3.1-2020q2-windows/bin/../lib/gcc/arm-none-eabi/9.3.1/../../../../arm-none-eabi/lib/thumb/v7-m/nofp/crt0.o
fclose                                            c:/users/roxanne/desktop/programming/adkit/tools/arm-none-eabi-gcc/9.3.1-2020q2-windows/bin/../lib/gcc/arm-none-eabi/9.3.1/../../../../arm-none-eabi/lib/thumb/v7-m/nofp\libc.a(lib_a-fclose.o)
fflush                                            c:/users/roxanne/desktop/programming/adkit/tools/arm-none-eabi-gcc/9.3.1-2020q2-windows/bin/../lib/gcc/arm-none-eabi/9.3.1/../../../../arm-none-eabi/lib/thumb/v7-m/nofp\libc.a(lib_a-fflush.o)
fiprintf                                          c:/users/roxanne/desktop/programming/adkit/tools/arm-none-eabi-gcc/9.3.1-2020q2-windows/bin/../lib/gcc/arm-none-eabi/9.3.1/../../../../arm-none-eabi/lib/thumb/v7-m/nofp\libc.a(lib_a-fiprintf.o)
                                                  c:/users/roxanne/desktop/programming/adkit/tools/arm-none-eabi-gcc/9.3.1-2020q2-windows/bin/../lib/gcc/arm-none-eabi/9.3.1/../../../../arm-none-eabi/lib/thumb/v7-m/nofp\libc.a(lib_a-assert.o)
fputwc                                            c:/users/roxanne/desktop/programming/adkit/tools/arm-none-eabi-gcc/9.3.1-2020q2-windows/bin/../lib/gcc/arm-none-eabi/9.3.1/../../../../arm-none-eabi/lib/thumb/v7-m/nofp\libc.a(lib_a-fputwc.o)
frexp                                             c:/users/roxanne/desktop/programming/adkit/tools/arm-none-eabi-gcc/9.3.1-2020q2-windows/bin/../lib/gcc/arm-none-eabi/9.3.1/../../../../arm-none-eabi/lib/thumb/v7-m/nofp\libc.a(lib_a-s_frexp.o)
                                                  c:/users/roxanne/desktop/programming/adkit/tools/arm-none-eabi-gcc/9.3.1-2020q2-windows/bin/../lib/gcc/arm-none-eabi/9.3.1/../../../../arm-none-eabi/lib/thumb/v7-m/nofp\libc.a(lib_a-vfprintf.o)
g_APinDescription                                 ../../lib/ArduinoCore-sam/out/sam.a(variant.o)
                                                  ../../lib/ArduinoCore-sam/out/sam.a(wiring_digital.o)
                                                  ../../lib/ArduinoCore-sam/out/sam.a(wiring_analog.o)
g_pinStatus                                       ../../lib/ArduinoCore-sam/out/sam.a(variant.o)
                                                  ../../lib/ArduinoCore-sam/out/sam.a(wiring_digital.o)
                                                  ../../lib/ArduinoCore-sam/out/sam.a(wiring_analog.o)
gpf_isr                                           ../../lib/ArduinoCore-sam/variants/arduino_due_x/libsam_sam3x8e_gcc_rel.a(uotghs.o)
hardware_init_hook                                c:/users/roxanne/desktop/programming/adkit/tools/arm-none-eabi-gcc/9.3.1-2020q2-windows/bin/../lib/gcc/arm-none-eabi/9.3.1/../../../../arm-none-eabi/lib/thumb/v7-m/nofp/crt0.o
init                                              ../../lib/ArduinoCore-sam/out/sam.a(variant.o)
                                                  build/asciz.a(main.o)
initiateReset                                     ../../lib/ArduinoCore-sam/out/sam.a(Reset.o)
kill                                              c:/users/roxanne/desktop/programming/adkit/tools/arm-none-eabi-gcc/9.3.1-2020q2-windows/bin/../lib/gcc/arm-none-eabi/9.3.1/../../../../arm-none-eabi/lib/thumb/v7-m/nofp\libc.a(lib_a-syskill.o)
link                                              ../../lib/ArduinoCore-sam/out/sam.a(syscalls_sam3.o)
localeconv                                        c:/users/roxanne/desktop/programming/adkit/tools/arm-none-eabi-gcc/9.3.1-2020q2-windows/bin/../lib/gcc/arm-none-eabi/9.3.1/../../../../arm-none-eabi/lib/thumb/v7-m/nofp\libc.a(lib_a-localeconv.o)
main                                              build/asciz.a(main.o)
                                                  ../../lib/ArduinoCore-sam/variants/arduino_due_x/libsam_sam3x8e_gcc_rel.a(startup_sam3xa.o)
                                                  c:/users/roxanne/desktop/programming/adkit/tools/arm-none-eabi-gcc/9.3.1-2020q2-windows/bin/../lib/gcc/arm-none-eabi/9.3.1/../../../../arm-none-eabi/lib/thumb/v7-m/nofp/crt0.o
memchr                                            c:/users/roxanne/desktop/programming/adkit/tools/arm-none-eabi-gcc/9.3.1-2020q2-windows/bin/../lib/gcc/arm-none-eabi/9.3.1/../../../../arm-none-eabi/lib/thumb/v7-m/nofp\libc.a(lib_a-memchr-stub.o)
                                                  c:/users/roxanne/desktop/programming/adkit/tools/arm-none-eabi-gcc/9.3.1-2020q2-windows/bin/../lib/gcc/arm-none-eabi/9.3.1/../../../../arm-none-eabi/lib/thumb/v7-m/nofp\libc.a(lib_a-fvwrite.o)
                                                  c:/users/roxanne/desktop/programming/adkit/tools/arm-none-eabi-gcc/9.3.1-2020q2-windows/bin/../lib/gcc/arm-none-eabi/9.3.1/../../../../arm-none-eabi/lib/thumb/v7-m/nofp\libc.a(lib_a-vfprintf.o)
                                                  c:/users/roxanne/desktop/programming/adkit/tools/arm-none-eabi-gcc/9.3.1-2020q2-windows/bin/../lib/gcc/arm-none-eabi/9.3.1/../../../../arm-none-eabi/lib/thumb/v7-m/nofp\libc.a(lib_a-vfiprintf.o)
memcpy                                            c:/users/roxanne/desktop/programming/adkit/tools/arm-none-eabi-gcc/9.3.1-2020q2-windows/bin/../lib/gcc/arm-none-eabi/9.3.1/../../../../arm-none-eabi/lib/thumb/v7-m/nofp\libc.a(lib_a-memcpy.o)
                                                  c:/users/roxanne/desktop/programming/adkit/tools/arm-none-eabi-gcc/9.3.1-2020q2-windows/bin/../lib/gcc/arm-none-eabi/9.3.1/../../../../arm-none-eabi/lib/thumb/v7-m/nofp\libc.a(lib_a-mprec.o)
                                                  c:/users/roxanne/desktop/programming/adkit/tools/arm-none-eabi-gcc/9.3.1-2020q2-windows/bin/../lib/gcc/arm-none-eabi/9.3.1/../../../../arm-none-eabi/lib/thumb/v7-m/nofp\libc.a(lib_a-fvwrite.o)
                                                  c:/users/roxanne/desktop/programming/adkit/tools/arm-none-eabi-gcc/9.3.1-2020q2-windows/bin/../lib/gcc/arm-none-eabi/9.3.1/../../../../arm-none-eabi/lib/thumb/v7-m/nofp\libc.a(lib_a-dtoa.o)
                                                  c:/users/roxanne/desktop/programming/adkit/tools/arm-none-eabi-gcc/9.3.1-2020q2-windows/bin/../lib/gcc/arm-none-eabi/9.3.1/thumb/v7-m/nofp\libgcc.a(unwind-arm.o)
memmove                                           c:/users/roxanne/desktop/programming/adkit/tools/arm-none-eabi-gcc/9.3.1-2020q2-windows/bin/../lib/gcc/arm-none-eabi/9.3.1/../../../../arm-none-eabi/lib/thumb/v7-m/nofp\libc.a(lib_a-memmove.o)
                                                  c:/users/roxanne/desktop/programming/adkit/tools/arm-none-eabi-gcc/9.3.1-2020q2-windows/bin/../lib/gcc/arm-none-eabi/9.3.1/../../../../arm-none-eabi/lib/thumb/v7-m/nofp\libc.a(lib_a-reallocr.o)
                                                  c:/users/roxanne/desktop/programming/adkit/tools/arm-none-eabi-gcc/9.3.1-2020q2-windows/bin/../lib/gcc/arm-none-eabi/9.3.1/../../../../arm-none-eabi/lib/thumb/v7-m/nofp\libc.a(lib_a-fvwrite.o)
memset                                            c:/users/roxanne/desktop/programming/adkit/tools/arm-none-eabi-gcc/9.3.1-2020q2-windows/bin/../lib/gcc/arm-none-eabi/9.3.1/../../../../arm-none-eabi/lib/thumb/v7-m/nofp\libc.a(lib_a-memset.o)
                                                  c:/users/roxanne/desktop/programming/adkit/tools/arm-none-eabi-gcc/9.3.1-2020q2-windows/bin/../lib/gcc/arm-none-eabi/9.3.1/../../../../arm-none-eabi/lib/thumb/v7-m/nofp\libc.a(lib_a-callocr.o)
                                                  c:/users/roxanne/desktop/programming/adkit/tools/arm-none-eabi-gcc/9.3.1-2020q2-windows/bin/../lib/gcc/arm-none-eabi/9.3.1/../../../../arm-none-eabi/lib/thumb/v7-m/nofp\libc.a(lib_a-findfp.o)
                                                  ../../lib/ArduinoCore-sam/out/sam.a(RingBuffer.o)
                                                  c:/users/roxanne/desktop/programming/adkit/tools/arm-none-eabi-gcc/9.3.1-2020q2-windows/bin/../lib/gcc/arm-none-eabi/9.3.1/../../../../arm-none-eabi/lib/thumb/v7-m/nofp/crt0.o
micros                                            ../../lib/ArduinoCore-sam/out/sam.a(wiring.o)
millis                                            ../../lib/ArduinoCore-sam/out/sam.a(wiring.o)
pendSVHook                                        ../../lib/ArduinoCore-sam/out/sam.a(hooks.o)
                                                  ../../lib/ArduinoCore-sam/out/sam.a(cortex_handlers.o)
pinMode                                           ../../lib/ArduinoCore-sam/out/sam.a(wiring_digital.o)
                                                  ../../lib/ArduinoCore-sam/out/sam.a(wiring_analog.o)
pmc_clr_fast_startup_input                        ../../lib/ArduinoCore-sam/variants/arduino_due_x/libsam_sam3x8e_gcc_rel.a(pmc.o)
pmc_disable_all_pck                               ../../lib/ArduinoCore-sam/variants/arduino_due_x/libsam_sam3x8e_gcc_rel.a(pmc.o)
pmc_disable_all_periph_clk                        ../../lib/ArduinoCore-sam/variants/arduino_due_x/libsam_sam3x8e_gcc_rel.a(pmc.o)
pmc_disable_interrupt                             ../../lib/ArduinoCore-sam/variants/arduino_due_x/libsam_sam3x8e_gcc_rel.a(pmc.o)
pmc_disable_pck                                   ../../lib/ArduinoCore-sam/variants/arduino_due_x/libsam_sam3x8e_gcc_rel.a(pmc.o)
pmc_disable_periph_clk                            ../../lib/ArduinoCore-sam/variants/arduino_due_x/libsam_sam3x8e_gcc_rel.a(pmc.o)
                                                  ../../lib/ArduinoCore-sam/out/sam.a(wiring_digital.o)
                                                  ../../lib/ArduinoCore-sam/out/sam.a(UARTClass.o)
pmc_disable_pllack                                ../../lib/ArduinoCore-sam/variants/arduino_due_x/libsam_sam3x8e_gcc_rel.a(pmc.o)
pmc_disable_udpck                                 ../../lib/ArduinoCore-sam/variants/arduino_due_x/libsam_sam3x8e_gcc_rel.a(pmc.o)
pmc_disable_upll_clock                            ../../lib/ArduinoCore-sam/variants/arduino_due_x/libsam_sam3x8e_gcc_rel.a(pmc.o)
pmc_enable_all_pck                                ../../lib/ArduinoCore-sam/variants/arduino_due_x/libsam_sam3x8e_gcc_rel.a(pmc.o)
pmc_enable_all_periph_clk                         ../../lib/ArduinoCore-sam/variants/arduino_due_x/libsam_sam3x8e_gcc_rel.a(pmc.o)
pmc_enable_backupmode                             ../../lib/ArduinoCore-sam/variants/arduino_due_x/libsam_sam3x8e_gcc_rel.a(pmc.o)
pmc_enable_interrupt                              ../../lib/ArduinoCore-sam/variants/arduino_due_x/libsam_sam3x8e_gcc_rel.a(pmc.o)
pmc_enable_pck                                    ../../lib/ArduinoCore-sam/variants/arduino_due_x/libsam_sam3x8e_gcc_rel.a(pmc.o)
pmc_enable_periph_clk                             ../../lib/ArduinoCore-sam/variants/arduino_due_x/libsam_sam3x8e_gcc_rel.a(pmc.o)
                                                  ../../lib/ArduinoCore-sam/out/sam.a(wiring_digital.o)
                                                  ../../lib/ArduinoCore-sam/out/sam.a(wiring_analog.o)
                                                  ../../lib/ArduinoCore-sam/out/sam.a(variant.o)
                                                  ../../lib/ArduinoCore-sam/out/sam.a(UARTClass.o)
pmc_enable_pllack                                 ../../lib/ArduinoCore-sam/variants/arduino_due_x/libsam_sam3x8e_gcc_rel.a(pmc.o)
pmc_enable_sleepmode                              ../../lib/ArduinoCore-sam/variants/arduino_due_x/libsam_sam3x8e_gcc_rel.a(pmc.o)
pmc_enable_udpck                                  ../../lib/ArduinoCore-sam/variants/arduino_due_x/libsam_sam3x8e_gcc_rel.a(pmc.o)
pmc_enable_upll_clock                             ../../lib/ArduinoCore-sam/variants/arduino_due_x/libsam_sam3x8e_gcc_rel.a(pmc.o)
pmc_enable_waitmode                               ../../lib/ArduinoCore-sam/variants/arduino_due_x/libsam_sam3x8e_gcc_rel.a(pmc.o)
pmc_get_interrupt_mask                            ../../lib/ArduinoCore-sam/variants/arduino_due_x/libsam_sam3x8e_gcc_rel.a(pmc.o)
pmc_get_status                                    ../../lib/ArduinoCore-sam/variants/arduino_due_x/libsam_sam3x8e_gcc_rel.a(pmc.o)
pmc_get_writeprotect_status                       ../../lib/ArduinoCore-sam/variants/arduino_due_x/libsam_sam3x8e_gcc_rel.a(pmc.o)
pmc_is_locked_pllack                              ../../lib/ArduinoCore-sam/variants/arduino_due_x/libsam_sam3x8e_gcc_rel.a(pmc.o)
pmc_is_locked_upll                                ../../lib/ArduinoCore-sam/variants/arduino_due_x/libsam_sam3x8e_gcc_rel.a(pmc.o)
pmc_is_pck_enabled                                ../../lib/ArduinoCore-sam/variants/arduino_due_x/libsam_sam3x8e_gcc_rel.a(pmc.o)
pmc_is_periph_clk_enabled                         ../../lib/ArduinoCore-sam/variants/arduino_due_x/libsam_sam3x8e_gcc_rel.a(pmc.o)
pmc_mck_set_prescaler                             ../../lib/ArduinoCore-sam/variants/arduino_due_x/libsam_sam3x8e_gcc_rel.a(pmc.o)
pmc_mck_set_source                                ../../lib/ArduinoCore-sam/variants/arduino_due_x/libsam_sam3x8e_gcc_rel.a(pmc.o)
pmc_osc_disable_fastrc                            ../../lib/ArduinoCore-sam/variants/arduino_due_x/libsam_sam3x8e_gcc_rel.a(pmc.o)
pmc_osc_disable_xtal                              ../../lib/ArduinoCore-sam/variants/arduino_due_x/libsam_sam3x8e_gcc_rel.a(pmc.o)
pmc_osc_enable_fastrc                             ../../lib/ArduinoCore-sam/variants/arduino_due_x/libsam_sam3x8e_gcc_rel.a(pmc.o)
pmc_osc_is_ready_32kxtal                          ../../lib/ArduinoCore-sam/variants/arduino_due_x/libsam_sam3x8e_gcc_rel.a(pmc.o)
pmc_osc_is_ready_mainck                           ../../lib/ArduinoCore-sam/variants/arduino_due_x/libsam_sam3x8e_gcc_rel.a(pmc.o)
pmc_pck_set_prescaler                             ../../lib/ArduinoCore-sam/variants/arduino_due_x/libsam_sam3x8e_gcc_rel.a(pmc.o)
pmc_pck_set_source                                ../../lib/ArduinoCore-sam/variants/arduino_due_x/libsam_sam3x8e_gcc_rel.a(pmc.o)
pmc_set_fast_startup_input                        ../../lib/ArduinoCore-sam/variants/arduino_due_x/libsam_sam3x8e_gcc_rel.a(pmc.o)
pmc_set_writeprotect                              ../../lib/ArduinoCore-sam/variants/arduino_due_x/libsam_sam3x8e_gcc_rel.a(pmc.o)
pmc_switch_mainck_to_fastrc                       ../../lib/ArduinoCore-sam/variants/arduino_due_x/libsam_sam3x8e_gcc_rel.a(pmc.o)
pmc_switch_mainck_to_xtal                         ../../lib/ArduinoCore-sam/variants/arduino_due_x/libsam_sam3x8e_gcc_rel.a(pmc.o)
pmc_switch_mck_to_mainck                          ../../lib/ArduinoCore-sam/variants/arduino_due_x/libsam_sam3x8e_gcc_rel.a(pmc.o)
pmc_switch_mck_to_pllack                          ../../lib/ArduinoCore-sam/variants/arduino_due_x/libsam_sam3x8e_gcc_rel.a(pmc.o)
pmc_switch_mck_to_sclk                            ../../lib/ArduinoCore-sam/variants/arduino_due_x/libsam_sam3x8e_gcc_rel.a(pmc.o)
pmc_switch_mck_to_upllck                          ../../lib/ArduinoCore-sam/variants/arduino_due_x/libsam_sam3x8e_gcc_rel.a(pmc.o)
pmc_switch_pck_to_mainck                          ../../lib/ArduinoCore-sam/variants/arduino_due_x/libsam_sam3x8e_gcc_rel.a(pmc.o)
pmc_switch_pck_to_pllack                          ../../lib/ArduinoCore-sam/variants/arduino_due_x/libsam_sam3x8e_gcc_rel.a(pmc.o)
pmc_switch_pck_to_sclk                            ../../lib/ArduinoCore-sam/variants/arduino_due_x/libsam_sam3x8e_gcc_rel.a(pmc.o)
pmc_switch_pck_to_upllck                          ../../lib/ArduinoCore-sam/variants/arduino_due_x/libsam_sam3x8e_gcc_rel.a(pmc.o)
pmc_switch_sclk_to_32kxtal                        ../../lib/ArduinoCore-sam/variants/arduino_due_x/libsam_sam3x8e_gcc_rel.a(pmc.o)
pmc_switch_udpck_to_pllack                        ../../lib/ArduinoCore-sam/variants/arduino_due_x/libsam_sam3x8e_gcc_rel.a(pmc.o)
pmc_switch_udpck_to_upllck                        ../../lib/ArduinoCore-sam/variants/arduino_due_x/libsam_sam3x8e_gcc_rel.a(pmc.o)
print_asciz                                       build/asciz.a(print_asciz.o)
                                                  build/asciz.a(main.o)
print_asciz_asm                                   build/asciz.a(print_asciz_asm.o)
                                                  build/asciz.a(application.o)
printf                                            c:/users/roxanne/desktop/programming/adkit/tools/arm-none-eabi-gcc/9.3.1-2020q2-windows/bin/../lib/gcc/arm-none-eabi/9.3.1/../../../../arm-none-eabi/lib/thumb/v7-m/nofp\libc.a(lib_a-printf.o)
                                                  build/asciz.a(main.o)
putc                                              c:/users/roxanne/desktop/programming/adkit/tools/arm-none-eabi-gcc/9.3.1-2020q2-windows/bin/../lib/gcc/arm-none-eabi/9.3.1/../../../../arm-none-eabi/lib/thumb/v7-m/nofp\libc.a(lib_a-putc.o)
putchar                                           c:/users/roxanne/desktop/programming/adkit/tools/arm-none-eabi-gcc/9.3.1-2020q2-windows/bin/../lib/gcc/arm-none-eabi/9.3.1/../../../../arm-none-eabi/lib/thumb/v7-m/nofp\libc.a(lib_a-putchar.o)
                                                  build/asciz.a(print_asciz_asm.o)
                                                  build/asciz.a(print_asciz.o)
raise                                             c:/users/roxanne/desktop/programming/adkit/tools/arm-none-eabi-gcc/9.3.1-2020q2-windows/bin/../lib/gcc/arm-none-eabi/9.3.1/../../../../arm-none-eabi/lib/thumb/v7-m/nofp\libc.a(lib_a-signal.o)
                                                  c:/users/roxanne/desktop/programming/adkit/tools/arm-none-eabi-gcc/9.3.1-2020q2-windows/bin/../lib/gcc/arm-none-eabi/9.3.1/../../../../arm-none-eabi/lib/thumb/v7-m/nofp\libc.a(lib_a-abort.o)
restore_core_regs                                 c:/users/roxanne/desktop/programming/adkit/tools/arm-none-eabi-gcc/9.3.1-2020q2-windows/bin/../lib/gcc/arm-none-eabi/9.3.1/thumb/v7-m/nofp\libgcc.a(libunwind.o)
                                                  c:/users/roxanne/desktop/programming/adkit/tools/arm-none-eabi-gcc/9.3.1-2020q2-windows/bin/../lib/gcc/arm-none-eabi/9.3.1/thumb/v7-m/nofp\libgcc.a(unwind-arm.o)
rx_buffer1                                        ../../lib/ArduinoCore-sam/out/sam.a(variant.o)
rx_buffer2                                        ../../lib/ArduinoCore-sam/out/sam.a(variant.o)
rx_buffer3                                        ../../lib/ArduinoCore-sam/out/sam.a(variant.o)
rx_buffer4                                        ../../lib/ArduinoCore-sam/out/sam.a(variant.o)
serialEvent()                                     ../../lib/ArduinoCore-sam/out/sam.a(variant.o)
serialEvent1()                                    ../../lib/ArduinoCore-sam/out/sam.a(variant.o)
serialEvent2()                                    ../../lib/ArduinoCore-sam/out/sam.a(variant.o)
serialEvent3()                                    ../../lib/ArduinoCore-sam/out/sam.a(variant.o)
serialEventRun()                                  ../../lib/ArduinoCore-sam/out/sam.a(variant.o)
setlocale                                         c:/users/roxanne/desktop/programming/adkit/tools/arm-none-eabi-gcc/9.3.1-2020q2-windows/bin/../lib/gcc/arm-none-eabi/9.3.1/../../../../arm-none-eabi/lib/thumb/v7-m/nofp\libc.a(lib_a-locale.o)
signal                                            c:/users/roxanne/desktop/programming/adkit/tools/arm-none-eabi-gcc/9.3.1-2020q2-windows/bin/../lib/gcc/arm-none-eabi/9.3.1/../../../../arm-none-eabi/lib/thumb/v7-m/nofp\libc.a(lib_a-signal.o)
software_init_hook                                c:/users/roxanne/desktop/programming/adkit/tools/arm-none-eabi-gcc/9.3.1-2020q2-windows/bin/../lib/gcc/arm-none-eabi/9.3.1/../../../../arm-none-eabi/lib/thumb/v7-m/nofp/crt0.o
strcmp                                            c:/users/roxanne/desktop/programming/adkit/tools/arm-none-eabi-gcc/9.3.1-2020q2-windows/bin/../lib/gcc/arm-none-eabi/9.3.1/../../../../arm-none-eabi/lib/thumb/v7-m/nofp\libc.a(lib_a-strcmp.o)
                                                  c:/users/roxanne/desktop/programming/adkit/tools/arm-none-eabi-gcc/9.3.1-2020q2-windows/bin/../lib/gcc/arm-none-eabi/9.3.1/../../../../arm-none-eabi/lib/thumb/v7-m/nofp\libc.a(lib_a-locale.o)
strlen                                            c:/users/roxanne/desktop/programming/adkit/tools/arm-none-eabi-gcc/9.3.1-2020q2-windows/bin/../lib/gcc/arm-none-eabi/9.3.1/../../../../arm-none-eabi/lib/thumb/v7-m/nofp\libc.a(lib_a-strlen-stub.o)
                                                  c:/users/roxanne/desktop/programming/adkit/tools/arm-none-eabi-gcc/9.3.1-2020q2-windows/bin/../lib/gcc/arm-none-eabi/9.3.1/../../../../arm-none-eabi/lib/thumb/v7-m/nofp\libc.a(lib_a-vfprintf.o)
                                                  c:/users/roxanne/desktop/programming/adkit/tools/arm-none-eabi-gcc/9.3.1-2020q2-windows/bin/../lib/gcc/arm-none-eabi/9.3.1/../../../../arm-none-eabi/lib/thumb/v7-m/nofp\libc.a(lib_a-vfiprintf.o)
                                                  ../../lib/ArduinoCore-sam/out/sam.a(Print.o)
strncpy                                           c:/users/roxanne/desktop/programming/adkit/tools/arm-none-eabi-gcc/9.3.1-2020q2-windows/bin/../lib/gcc/arm-none-eabi/9.3.1/../../../../arm-none-eabi/lib/thumb/v7-m/nofp\libc.a(lib_a-strncpy.o)
                                                  c:/users/roxanne/desktop/programming/adkit/tools/arm-none-eabi-gcc/9.3.1-2020q2-windows/bin/../lib/gcc/arm-none-eabi/9.3.1/../../../../arm-none-eabi/lib/thumb/v7-m/nofp\libc.a(lib_a-vfprintf.o)
                                                  c:/users/roxanne/desktop/programming/adkit/tools/arm-none-eabi-gcc/9.3.1-2020q2-windows/bin/../lib/gcc/arm-none-eabi/9.3.1/../../../../arm-none-eabi/lib/thumb/v7-m/nofp\libc.a(lib_a-vfiprintf.o)
svcHook                                           ../../lib/ArduinoCore-sam/out/sam.a(hooks.o)
                                                  ../../lib/ArduinoCore-sam/out/sam.a(cortex_handlers.o)
sysTickHook                                       ../../lib/ArduinoCore-sam/out/sam.a(hooks.o)
                                                  ../../lib/ArduinoCore-sam/out/sam.a(cortex_handlers.o)
system_init_flash                                 ../../lib/ArduinoCore-sam/variants/arduino_due_x/libsam_sam3x8e_gcc_rel.a(system_sam3xa.o)
tickReset                                         ../../lib/ArduinoCore-sam/out/sam.a(Reset.o)
                                                  ../../lib/ArduinoCore-sam/out/sam.a(cortex_handlers.o)
toggle_asciz                                      build/asciz.a(toggle_asciz.o)
                                                  build/asciz.a(print_asciz.o)
toggle_asciz_asm                                  build/asciz.a(toggle_asciz_asm.o)
                                                  build/asciz.a(print_asciz_asm.o)
tx_buffer1                                        ../../lib/ArduinoCore-sam/out/sam.a(variant.o)
tx_buffer2                                        ../../lib/ArduinoCore-sam/out/sam.a(variant.o)
tx_buffer3                                        ../../lib/ArduinoCore-sam/out/sam.a(variant.o)
tx_buffer4                                        ../../lib/ArduinoCore-sam/out/sam.a(variant.o)
vfiprintf                                         c:/users/roxanne/desktop/programming/adkit/tools/arm-none-eabi-gcc/9.3.1-2020q2-windows/bin/../lib/gcc/arm-none-eabi/9.3.1/../../../../arm-none-eabi/lib/thumb/v7-m/nofp\libc.a(lib_a-vfiprintf.o)
vfprintf                                          c:/users/roxanne/desktop/programming/adkit/tools/arm-none-eabi-gcc/9.3.1-2020q2-windows/bin/../lib/gcc/arm-none-eabi/9.3.1/../../../../arm-none-eabi/lib/thumb/v7-m/nofp\libc.a(lib_a-vfprintf.o)
vtable for Print                                  ../../lib/ArduinoCore-sam/out/sam.a(Print.o)
vtable for UARTClass                              ../../lib/ArduinoCore-sam/out/sam.a(UARTClass.o)
vtable for USARTClass                             ../../lib/ArduinoCore-sam/out/sam.a(USARTClass.o)
watchdogDisable()                                 ../../lib/ArduinoCore-sam/out/sam.a(watchdog.o)
watchdogEnable(unsigned long)                     ../../lib/ArduinoCore-sam/out/sam.a(watchdog.o)
watchdogReset()                                   ../../lib/ArduinoCore-sam/out/sam.a(watchdog.o)
watchdogSetup()                                   ../../lib/ArduinoCore-sam/out/sam.a(watchdog.o)
                                                  build/asciz.a(main.o)
wcrtomb                                           c:/users/roxanne/desktop/programming/adkit/tools/arm-none-eabi-gcc/9.3.1-2020q2-windows/bin/../lib/gcc/arm-none-eabi/9.3.1/../../../../arm-none-eabi/lib/thumb/v7-m/nofp\libc.a(lib_a-wcrtomb.o)
yield                                             ../../lib/ArduinoCore-sam/out/sam.a(hooks.o)
                                                  ../../lib/ArduinoCore-sam/out/sam.a(wiring.o)
